GAS LISTING /tmp/cccJIYS7.s 			page 1


   1               		.file	"ov7670.c"
   2               	__SP_H__ = 0x3e
   3               	__SP_L__ = 0x3d
   4               	__SREG__ = 0x3f
   5               	__tmp_reg__ = 0
   6               	__zero_reg__ = 1
   7               		.stabs	"/media/snigavig/sddrive1/gdrive/projects/space-reality-experience/",100,0,2,.Ltext0
   8               		.stabs	"ov7670.c",100,0,2,.Ltext0
   9               		.text
  10               	.Ltext0:
  11               		.stabs	"gcc2_compiled.",60,0,0,0
  12               		.stabs	"int:t(0,1)=r(0,1);-32768;32767;",128,0,0,0
  13               		.stabs	"char:t(0,2)=@s8;r(0,2);0;255;",128,0,0,0
  14               		.stabs	"long int:t(0,3)=@s32;r(0,3);020000000000;017777777777;",128,0,0,0
  15               		.stabs	"unsigned int:t(0,4)=r(0,4);0;0177777;",128,0,0,0
  16               		.stabs	"long unsigned int:t(0,5)=@s32;r(0,5);0;037777777777;",128,0,0,0
  17               		.stabs	"long long int:t(0,6)=@s64;r(0,6);01000000000000000000000;0777777777777777777777;",128,0,0,
  18               		.stabs	"long long unsigned int:t(0,7)=@s64;r(0,7);0;01777777777777777777777;",128,0,0,0
  19               		.stabs	"short int:t(0,8)=r(0,8);-32768;32767;",128,0,0,0
  20               		.stabs	"short unsigned int:t(0,9)=r(0,9);0;0177777;",128,0,0,0
  21               		.stabs	"signed char:t(0,10)=@s8;r(0,10);-128;127;",128,0,0,0
  22               		.stabs	"unsigned char:t(0,11)=@s8;r(0,11);0;255;",128,0,0,0
  23               		.stabs	"float:t(0,12)=r(0,1);4;0;",128,0,0,0
  24               		.stabs	"double:t(0,13)=r(0,1);4;0;",128,0,0,0
  25               		.stabs	"long double:t(0,14)=r(0,1);4;0;",128,0,0,0
  26               		.stabs	"short _Fract:t(0,15)=r(0,1);1;0;",128,0,0,0
  27               		.stabs	"_Fract:t(0,16)=r(0,1);2;0;",128,0,0,0
  28               		.stabs	"long _Fract:t(0,17)=r(0,1);4;0;",128,0,0,0
  29               		.stabs	"long long _Fract:t(0,18)=r(0,1);8;0;",128,0,0,0
  30               		.stabs	"unsigned short _Fract:t(0,19)=r(0,1);1;0;",128,0,0,0
  31               		.stabs	"unsigned _Fract:t(0,20)=r(0,1);2;0;",128,0,0,0
  32               		.stabs	"unsigned long _Fract:t(0,21)=r(0,1);4;0;",128,0,0,0
  33               		.stabs	"unsigned long long _Fract:t(0,22)=r(0,1);8;0;",128,0,0,0
  34               		.stabs	"_Sat short _Fract:t(0,23)=r(0,1);1;0;",128,0,0,0
  35               		.stabs	"_Sat _Fract:t(0,24)=r(0,1);2;0;",128,0,0,0
  36               		.stabs	"_Sat long _Fract:t(0,25)=r(0,1);4;0;",128,0,0,0
  37               		.stabs	"_Sat long long _Fract:t(0,26)=r(0,1);8;0;",128,0,0,0
  38               		.stabs	"_Sat unsigned short _Fract:t(0,27)=r(0,1);1;0;",128,0,0,0
  39               		.stabs	"_Sat unsigned _Fract:t(0,28)=r(0,1);2;0;",128,0,0,0
  40               		.stabs	"_Sat unsigned long _Fract:t(0,29)=r(0,1);4;0;",128,0,0,0
  41               		.stabs	"_Sat unsigned long long _Fract:t(0,30)=r(0,1);8;0;",128,0,0,0
  42               		.stabs	"short _Accum:t(0,31)=r(0,1);2;0;",128,0,0,0
  43               		.stabs	"_Accum:t(0,32)=r(0,1);4;0;",128,0,0,0
  44               		.stabs	"long _Accum:t(0,33)=r(0,1);8;0;",128,0,0,0
  45               		.stabs	"long long _Accum:t(0,34)=r(0,1);8;0;",128,0,0,0
  46               		.stabs	"unsigned short _Accum:t(0,35)=r(0,1);2;0;",128,0,0,0
  47               		.stabs	"unsigned _Accum:t(0,36)=r(0,1);4;0;",128,0,0,0
  48               		.stabs	"unsigned long _Accum:t(0,37)=r(0,1);8;0;",128,0,0,0
  49               		.stabs	"unsigned long long _Accum:t(0,38)=r(0,1);8;0;",128,0,0,0
  50               		.stabs	"_Sat short _Accum:t(0,39)=r(0,1);2;0;",128,0,0,0
  51               		.stabs	"_Sat _Accum:t(0,40)=r(0,1);4;0;",128,0,0,0
  52               		.stabs	"_Sat long _Accum:t(0,41)=r(0,1);8;0;",128,0,0,0
  53               		.stabs	"_Sat long long _Accum:t(0,42)=r(0,1);8;0;",128,0,0,0
  54               		.stabs	"_Sat unsigned short _Accum:t(0,43)=r(0,1);2;0;",128,0,0,0
  55               		.stabs	"_Sat unsigned _Accum:t(0,44)=r(0,1);4;0;",128,0,0,0
  56               		.stabs	"_Sat unsigned long _Accum:t(0,45)=r(0,1);8;0;",128,0,0,0
  57               		.stabs	"_Sat unsigned long long _Accum:t(0,46)=r(0,1);8;0;",128,0,0,0
GAS LISTING /tmp/cccJIYS7.s 			page 2


  58               		.stabs	"void:t(0,47)=(0,47)",128,0,0,0
  59               		.stabs	"/usr/lib/gcc/avr/4.8.1/include/stdint.h",130,0,0,0
  60               		.stabs	"/usr/lib/avr/include/stdint.h",130,0,0,0
  61               		.stabs	"int8_t:t(2,1)=(0,10)",128,0,121,0
  62               		.stabs	"uint8_t:t(2,2)=(0,11)",128,0,122,0
  63               		.stabs	"int16_t:t(2,3)=(0,1)",128,0,123,0
  64               		.stabs	"uint16_t:t(2,4)=(0,4)",128,0,124,0
  65               		.stabs	"int32_t:t(2,5)=(0,3)",128,0,125,0
  66               		.stabs	"uint32_t:t(2,6)=(0,5)",128,0,126,0
  67               		.stabs	"int64_t:t(2,7)=(0,6)",128,0,128,0
  68               		.stabs	"uint64_t:t(2,8)=(0,7)",128,0,129,0
  69               		.stabs	"intptr_t:t(2,9)=(2,3)",128,0,142,0
  70               		.stabs	"uintptr_t:t(2,10)=(2,4)",128,0,147,0
  71               		.stabs	"int_least8_t:t(2,11)=(2,1)",128,0,159,0
  72               		.stabs	"uint_least8_t:t(2,12)=(2,2)",128,0,164,0
  73               		.stabs	"int_least16_t:t(2,13)=(2,3)",128,0,169,0
  74               		.stabs	"uint_least16_t:t(2,14)=(2,4)",128,0,174,0
  75               		.stabs	"int_least32_t:t(2,15)=(2,5)",128,0,179,0
  76               		.stabs	"uint_least32_t:t(2,16)=(2,6)",128,0,184,0
  77               		.stabs	"int_least64_t:t(2,17)=(2,7)",128,0,192,0
  78               		.stabs	"uint_least64_t:t(2,18)=(2,8)",128,0,199,0
  79               		.stabs	"int_fast8_t:t(2,19)=(2,1)",128,0,213,0
  80               		.stabs	"uint_fast8_t:t(2,20)=(2,2)",128,0,218,0
  81               		.stabs	"int_fast16_t:t(2,21)=(2,3)",128,0,223,0
  82               		.stabs	"uint_fast16_t:t(2,22)=(2,4)",128,0,228,0
  83               		.stabs	"int_fast32_t:t(2,23)=(2,5)",128,0,233,0
  84               		.stabs	"uint_fast32_t:t(2,24)=(2,6)",128,0,238,0
  85               		.stabs	"int_fast64_t:t(2,25)=(2,7)",128,0,246,0
  86               		.stabs	"uint_fast64_t:t(2,26)=(2,8)",128,0,253,0
  87               		.stabs	"intmax_t:t(2,27)=(2,7)",128,0,273,0
  88               		.stabs	"uintmax_t:t(2,28)=(2,8)",128,0,278,0
  89               		.stabn	162,0,0,0
  90               		.stabn	162,0,0,0
  91               		.stabs	"/usr/lib/avr/include/avr/io.h",130,0,0,0
  92               		.stabs	"/usr/lib/avr/include/avr/sfr_defs.h",130,0,0,0
  93               		.stabs	"/usr/lib/avr/include/inttypes.h",130,0,0,0
  94               		.stabs	"int_farptr_t:t(5,1)=(2,5)",128,0,77,0
  95               		.stabs	"uint_farptr_t:t(5,2)=(2,6)",128,0,81,0
  96               		.stabn	162,0,0,0
  97               		.stabn	162,0,0,0
  98               		.stabs	"/usr/lib/avr/include/avr/fuse.h",130,0,0,0
  99               		.stabs	"__fuse_t:t(6,1)=(6,2)=s3low:(0,11),0,8;high:(0,11),8,8;extended:(0,11),16,8;;",128,0,244,0
 100               		.stabn	162,0,0,0
 101               		.stabn	162,0,0,0
 102               		.stabs	"/usr/lib/avr/include/avr/pgmspace.h",130,0,0,0
 103               		.stabs	"/usr/lib/gcc/avr/4.8.1/include/stddef.h",130,0,0,0
 104               		.stabs	"size_t:t(8,1)=(0,4)",128,0,212,0
 105               		.stabn	162,0,0,0
 106               		.stabn	162,0,0,0
 107               		.stabs	"ov7670.h",130,0,0,0
 108               		.stabs	"RESOLUTION:T(9,1)=@s8;eVGA:0,QVGA:1,QQVGA:2,;",128,0,0,0
 109               		.stabs	"COLORSPACE:T(9,2)=@s8;eYUV422:0,RGB565:1,BAYER_RGB:2,;",128,0,0,0
 110               		.stabs	"regval_list:T(9,3)=s2reg_num:(2,2),0,8;value:(2,2),8,8;;",128,0,0,0
 111               		.stabn	162,0,0,0
 112               		.section	.gnu.lto_.jmpfuncs.1f400114225eb232,"",@progbits
 113 0000 789C 8D91 		.string	"x\234\215\221=\016\3020\f\205\237\363'\020\025\242HH\214\214\034\003\301%X\031;deA\225r\f
 113      3D0E C230 
GAS LISTING /tmp/cccJIYS7.s 			page 3


 113      0C85 9FF3 
 113      2710 15A2 
 113      4848 8C8C 
 114 003b A4CE D411 		.ascii	"\244\316\324\021\302p\2119\2404t\fF\013\357\023\003]cdB\373\f"
 114      C270 8939 
 114      A034 740C 
 114      460B EF13 
 114      035D 6364 
 115 0052 5081 9C1D 		.ascii	"P\201\234\035\005mc\335R\362vRl\244\b6\275\341\031\356a\325\221"
 115      056D 63DD 
 115      52F2 7652 
 115      6CA4 0836 
 115      BDE1 19EE 
 116 0069 F279 9719 		.ascii	"\362y\227\031\025\2169\345\326Q|\022\361\001\237\225\373?7\231"
 116      158E 39E5 
 116      D651 7C12 
 116      F101 9F95 
 116      FB3F 3799 
 117 007d 977E DAA7 		.ascii	"\227~\332\247\r\304\242\255\307\275!\260\240Be|\276f2\211\335"
 117      0DC4 A2AD 
 117      C7BD 21B0 
 117      A042 657C 
 117      BE66 3289 
 118 0092 B12C 1BAD 		.ascii	"\261,\033\255'\303pz\264\251\244\261\313\376\350B+t#tWi\235'"
 118      27C3 707A 
 118      B4A9 A4B1 
 118      CBFE E842 
 118      2B74 2374 
 119 00aa 07D4 1F37 		.ascii	"\007\324\0377*\326\242\b|\342\013\t\024>\227"
 119      2AD6 A208 
 119      7CE2 0B09 
 119      143E 97
 120               		.text
 121               		.section	.gnu.lto_.inline.1f400114225eb232,"",@progbits
 122 0000 789C 8551 		.string	"x\234\205Q;N\0031\020}3v\026\233\230\254\211 \202*\024\021\002\321q"
 122      3B4E 0331 
 122      107D 3376 
 122      169B 98AC 
 122      8920 822A 
 123 001a 8EB0 756E 		.string	"\216\260un"
 123      00
 124 001f 5C84 7A25 		.string	"\\\204z%Z\212\3644\324\210\202:\005\242\342\b\034\"E\304\370\023'\013+\261+\215g<3\357\31
 124      5A8A F434 
 124      D488 823A 
 124      05A2 E208 
 124      1C22 45C4 
 125 00a4 F55B 5867 		.string	"\365[Xg\274~\230\2246\345(\024\266M\005sJq\307m*\366\3620"
 125      BC7E 9894 
 125      36E5 2814 
 125      B64D 0573 
 125      4A71 C76D 
 126 00bd 1B1C 2FE5 		.string	"\033\034/\345`\231\254\207\222:D=\243\344\214\205;\357\222$\364\204\261\323\207\266\031\3
 126      6099 AC87 
 126      923A 443D 
 126      A3E4 8C85 
 126      3BEF 9224 
 127 00ee 1705 9340 		.string	"\027\005\223@K0\302\344h\203f\013\232-h\366?4\031\313g9L\nM^K\336\343\360\317^\035\361v\0
GAS LISTING /tmp/cccJIYS7.s 			page 4


 127      4B30 C2E4 
 127      6883 660B 
 127      9A2D 68F6 
 127      3F34 19CB 
 128 0115 D6F2 2E69 		.ascii	"\326\362.i"
 129               		.text
 130               		.section	.gnu.lto_.pureconst.1f400114225eb232,"",@progbits
 131 0000 789C 6362 		.string	"x\234cb`b\220d\200"
 131      6062 9064 
 131      8000 
 132 000a 1E06 3346 		.string	"\036\0063F)&)f)\026)V+6\t\016)N\tn\t>\tA\t"
 132      2926 2966 
 132      2916 2956 
 132      2B36 090E 
 132      294E 096E 
 133 0024 1A1E 01E4 		.ascii	"\032\036\001\344"
 134               		.text
 135               		.section	.gnu.lto_errorLed.1f400114225eb232,"",@progbits
 136 0000 789C 8552 		.string	"x\234\205R\277K\303P\020\276{/M\252.\216\016\"\245\330\321\306E\273*\270\270\267\240S\210
 136      BF4B C350 
 136      10BE 7B2F 
 136      4DAA 2E8E 
 136      0E22 A5D8 
 137 0094 18DE 6794 		.string	"\030\336g\224\020!\206\f\220w\240Y?x\253\312:\326H\177\035\3719\234\025\212h\"\256\020\26
 137      1021 860C 
 137      9077 A059 
 137      3F78 ABCA 
 137      3AD6 487F 
 138 0135 7BF0 4DFC 		.ascii	"{\360M\374q\023\025\003\231\216W\024#s\251\262\375\254\323\033"
 138      7113 1503 
 138      998E 5714 
 138      2373 A9B2 
 138      FDAC D31B 
 139 0149 F08B BC28 		.ascii	"\360\213\274(\r\200\372\216\321\036qd;\027\231\217\314\206\r"
 139      0D80 FA8E 
 139      D11E 7164 
 139      3B17 998F 
 139      CC86 0D
 140 015c 08AA D974 		.ascii	"\b\252\331tJ\265\3145U\317\245Ts\313\260\262\361\204\232\315"
 140      4AB5 CC35 
 140      55CF A554 
 140      73CB B0B2 
 140      F184 9ACD 
 141 0170 9896 1A4F 		.ascii	"\230\226\032OX\372nx\003|\232\226I\356\214\022\232\306fZ\213"
 141      58FA 6E78 
 141      037C 9A96 
 141      49EE 8C12 
 141      9AC6 665A 
 142 0185 1B92 A625 		.ascii	"\033\222\246%\323?j2\233\235"
 142      D33F 6A32 
 142      9B9D 
 143               		.text
 144               		.section	.gnu.lto_twiStart.1f400114225eb232,"",@progbits
 145 0000 789C 6D52 		.ascii	"x\234mR-O\003A\020}\263\037w-4\001\215\302\341\b\030\252\371"
 145      2D4F 0341 
 145      107D B31F 
 145      772D 3401 
GAS LISTING /tmp/cccJIYS7.s 			page 5


 145      8DC2 E108 
 146 0017 03A8 5E02 		.ascii	"\003\250^\002\022*\2323\3400\210\356q\327\004\001\244AB\021$"
 146      122A 9A33 
 146      E030 88EE 
 146      71D7 0401 
 146      A441 4211 
 147 002c 682A 306D 		.ascii	"h*0mA\020\f\230\226\340\220\r\246\246A\023L\231\335\3365\245"
 147      4110 0C98 
 147      96E0 900D 
 147      A6A6 4113 
 147      4C99 DDDE 
 148 0042 6192 9B99 		.ascii	"a\222\233\231}\363f\336\354e\005\004fm\213\2776\001\363\034)"
 148      7DF3 66DE 
 148      EC65 0504 
 148      666D 8BBF 
 148      3601 F31C 
 149 0057 0712 F51E 		.ascii	"\007\022\365\036\020\345\004\311q\"\205\177\372\002\2309\225"
 149      10E5 04C9 
 149      7122 857F 
 149      FA02 9839 
 149      95
 150 0068 F830 057F 		.ascii	"\3700\005\177\214o*\241\025\203\336)\037LA\303#\2628\bU!}\245"
 150      8C6F 2AA1 
 150      1583 DE29 
 150      1F4C 41C3 
 150      23B2 3808 
 151 0080 3DAA EE90 		.ascii	"=\252\356\220\023h\212\247\376htw\321\273\036RK\370\022!A\261"
 151      1368 8AA7 
 151      FE68 7477 
 151      D1BB 1E52 
 151      4BF8 1221 
 152 0096 236D 33CF 		.ascii	"#m3\317:6\215\304\230\3722Pv\307\022{\326\013Hp\220]<\267>>\327"
 152      3A36 8DC4 
 152      98FA 3250 
 152      76C7 127B 
 152      D60B 4870 
 153 00b1 77E9 869B 		.ascii	"w\351\206\233\256p\031%\221\321!\211m\nI>\022\\tb6\023\267\224"
 153      AE70 1925 
 153      91D1 2189 
 153      6D0A 493E 
 153      125C 7462 
 154 00c9 DE2D 6094 		.ascii	"\336-`\224\267\262\375\235Z\263\2614\036P!\351f\320\277\023\200"
 154      B7B2 FD9D 
 154      5AB3 B134 
 154      1E50 21E9 
 154      66D0 BF13 
 155 00de 2E8E BFE2 		.ascii	".\216\277\342\275\214\253*\266\360\212d\020-L0K'LY\211|\360o"
 155      BD8C AB2A 
 155      B6F0 8A64 
 155      102D 4C30 
 155      4B27 4C59 
 156 00f6 A280 54BA 		.ascii	"\242\200T\272p\247v\337\360\262\006\357\257`{V0~\210\3673\256"
 156      70A7 76DF 
 156      F0B2 06EF 
 156      AF60 7B56 
 156      307E 88F7 
 157 010c 66BA ADE2 		.ascii	"f\272\255\342\333*\260\3600\312Oj\256\220\233\022\016\030\207"
GAS LISTING /tmp/cccJIYS7.s 			page 6


 157      DB2A B0F0 
 157      30CA 4F6A 
 157      AE90 9B12 
 157      0E18 87
 158 011f 7C43 DC3F 		.ascii	"|C\334?\033\244r\300\021~\314\211Y\fI\225\3235C\207;\276g\027"
 158      1BA4 72C0 
 158      117E CC89 
 158      590C 4995 
 158      D335 4387 
 159 0137 7C47 D43F 		.ascii	"|G\324?_\311\370\331\035\210K\366\205\344\017\016\213\033\305"
 159      5FC9 F8D9 
 159      1D88 4BF6 
 159      85E4 0F0E 
 159      8B1B C5
 160 014a B5D5 327E 		.ascii	"\265\3252~\001n;j\352"
 160      016E 3B6A 
 160      EA
 161               		.text
 162               		.section	.gnu.lto_twiWriteByte.1f400114225eb232,"",@progbits
 163 0000 789C 7551 		.string	"x\234uQ=K\003A\020}\263{{\233\344R\330\333\244\263\023m\f\226\376\001+\003ZJ\300p\205\b\0
 163      3D4B 0341 
 163      107D B37B 
 163      7B9B E452 
 163      D8DB A4B3 
 164 00b1 9413 A505 		.string	"\224\023\245\005\216<C\211k\261\226w\270\272\335{\236]\246cR8\300~\030\207\201\362I.\222O
 164      8E3C 4389 
 164      6BB1 9677 
 164      B8BA DD7B 
 164      9E5D A663 
 165 00d7 1523 C6F4 		.ascii	"\025#\306\364f\363?\372\3050\335d2\246\301\363\224H\202\215\231"
 165      66F3 3FFA 
 165      C530 DD64 
 165      32A6 C1F3 
 165      9448 828D 
 166 00ec 76ED DA4B 		.ascii	"v\355\332Kc<\025\250\220J4\350O\005\323m\353-Z\261\\\227\351"
 166      633C 15A8 
 166      904A 34E8 
 166      4F05 D36D 
 166      EB2D 5AB1 
 167 0103 C00D E25E 		.ascii	"\300\r\342^8\375\215\031\272m\202\324\236\006\2774\225X%\365"
 167      38FD 8D19 
 167      BA6D 82D4 
 167      9E06 BF34 
 167      9558 25F5 
 168 0117 D7AE BD37 		.ascii	"\327\256\2757\264\275\220\371\335\2605\3320\352D\353\226\253"
 168      B4BD 90F9 
 168      DDB0 35DA 
 168      30EA 44EB 
 168      96AB 
 169 0129 996E AAF8 		.ascii	"\231n\252\370\240\3010\322\226\262\\\035\314wF\026\364*\224K"
 169      A0C1 30D2 
 169      96B2 5C1D 
 169      CC77 4616 
 169      F42A 944B 
 170 013d 067C 0DBD 		.ascii	"\006|\r\275!\242\3673\\\3118\220\017\210\272\215\236\233R\200"
 170      21A2 F733 
 170      5CC9 3890 
GAS LISTING /tmp/cccJIYS7.s 			page 7


 170      0F88 BA8D 
 170      9E9B 5280 
 171 0151 4D7C 06DB 		.ascii	"M|\006\333\301\230O\252<\260\342\223k\371\2561\361\210\260{8"
 171      C198 4FAA 
 171      3CB0 E293 
 171      6BF9 AE31 
 171      F188 B07B 
 172 0166 61F9 D627 		.ascii	"a\371\326'q\311\374\337\354\332Fq\24685Y\306\027}\220\201g"
 172      71C9 FCDF 
 172      ECDA 4671 
 172      A638 3559 
 172      C617 7D90 
 173               		.text
 174               		.section	.gnu.lto_twiRd.1f400114225eb232,"",@progbits
 175 0000 789C 9593 		.ascii	"x\234\225\223\277K\034A\024\307\277ofwg\177\233R\260\261K\027"
 175      BF4B 1C41 
 175      14C7 BF6F 
 175      6677 677F 
 175      9B52 B0B1 
 176 0016 0242 24A5 		.ascii	"\002B$\245\377A\n\017\264\224+\302\026bg\223\302\335\334\212"
 176      FF41 0A0F 
 176      B494 2BC2 
 176      1662 6793 
 176      C2DD DC8A 
 177 002a 5758 48CA 		.ascii	"WXH\312\004\205\020\322\306\326\037W\250\bI ^Hg%v)\fJ\272`sy"
 177      0485 10D2 
 177      C6D6 1F57 
 177      A808 4920 
 177      5E48 6725 
 178 0046 3373 BB97 		.ascii	"3s\273\227=\f\350\302\276\235\375\276\357{\363\346\303\256\200"
 178      3D0C E8C2 
 178      BE9D FDBE 
 178      EF7B F3E6 
 178      C3AE 80
 179 0059 C0F8 F586 		.ascii	"\300\370\365\206\357R\002\021?)\005\211\255>P\370B\310\356c\344"
 179      EF52 0211 
 179      3F29 0589 
 179      AD3E 50F8 
 179      42C8 EE63 
 180 006e A1D2 3196 		.ascii	"\241\3221\226\344X\331\021\361\346g\260\356\226\212\365\330\352"
 180      E458 D911 
 180      F1E6 67B0 
 180      EE96 8AF5 
 180      D8EA 
 181 0080 73AE F01C 		.ascii	"s\256\360\034\026\243M~\311c\017\212|\353\367Eb\375\201\361'"
 181      16A3 4D7E 
 181      C963 0F8A 
 181      7CEB F745 
 181      62FD 81F1 
 182 0095 569F 0B44 		.ascii	"V\237\013D\370\217?DD\244u\020\326\204tb\327S~\022\204\021\255"
 182      F88F 3F44 
 182      44A4 7510 
 182      D684 7462 
 182      D753 7E12 
 183 00ac 2D92 1972 		.ascii	"-\222\031rW\034]\016\006\237.\372\037\277QOL\bZ&\270\310\b\036"
 183      571C 5D0E 
 183      069F 2EFA 
GAS LISTING /tmp/cccJIYS7.s 			page 8


 183      1FBF 514F 
 183      4C08 5A26 
 184 00c4 0752 7AE5 		.ascii	"\007Rz\345\353\020\352\020i-\326\253D\207\224\203>\266\2132\317"
 184      EB10 EA10 
 184      692D D6AB 
 184      4487 9483 
 184      3EB6 8B32 
 185 00d9 B7A6 81B6 		.ascii	"\267\246\201\266\3519\317\261\233\242\305\271n*\277\240\374u"
 185      E939 CFB1 
 185      9BA2 C5B9 
 185      6E2A BFA0 
 185      FC75 
 186 00eb FCBB 2F96 		.ascii	"\374\273/\226\350=\271xIb\2012jpj\221D\251\344\031N\366\366\256"
 186      E83D B978 
 186      4962 8132 
 186      6A70 6A91 
 186      44A9 E419 
 187 0103 9F5B DF3B 		.ascii	"\237[\337;\274-\312\"W\031I\355wz\004\3634\005z%K\252\313\035"
 187      BC2D CA22 
 187      5719 49ED 
 187      777A 04F3 
 187      3405 7A25 
 188 011b F011 75FD 		.ascii	"\360\021u\375\301\372\325\366T\265\221kz\320\235\035\2003\274"
 188      C1FA D5F6 
 188      54B5 916B 
 188      7AD0 9D1D 
 188      8033 BC
 189 012e BEEE DC52 		.ascii	"\276\356\334Re\366\330\017\360\254?\213\231Z\323\376\306\250"
 189      65F6 D80F 
 189      F0AC 3F8B 
 189      995A D3FE 
 189      C6A8 
 190 0140 F37C 7886 		.ascii	"\363|x\206N-\316\333\211\017\326o\266'\253\002\325\334q\177|"
 190      4E2D CEDB 
 190      890F D66F 
 190      B627 AB02 
 190      D5DC 717F 
 191 0155 C7CE 6167 		.ascii	"\307\316ag\265\362&l7$\376\350\0354\244\"\251s&\261\320@\344"
 191      B5F2 266C 
 191      3724 FEE8 
 191      1D34 A422 
 191      A973 26B1 
 192 016c 01F2 3B3A 		.ascii	"\001\362;:\227\275\rem\300+\334\346\335\374QFn{8f\246m\326\257"
 192      97BD 0D65 
 192      6DC0 2BDC 
 192      E6DD FC51 
 192      466E 7B38 
 193 0185 2AA4 E737 		.ascii	"*\244\3477\367Fz:B\352\217\220\016FH\303\207 \215\330?\2164\272"
 193      F746 7A3A 
 193      42EA 8F90 
 193      0E46 48C3 
 193      8720 8DD8 
 194 019d 0369 3244 		.ascii	"\003i2D\032\324H?\354\324H\343\007 \365\331\376?\244\276I\274"
 194      1AD4 483F 
 194      ECD4 48E3 
 194      0720 F5D9 
 194      FE3F A4BE 
GAS LISTING /tmp/cccJIYS7.s 			page 9


 195 01b3 6820 0D87 		.ascii	"h \r\207H\277\336\023i\204\215\324\016\270\273S\177\316\351\020"
 195      48BF DE13 
 195      6984 8DD4 
 195      0EB8 BB53 
 195      7FCE E910 
 196 01c7 EB4C 35E2 		.ascii	"\353L5\342as\304\037(\216F\346\352\314\304\255\364\237\023\254"
 196      6173 C41F 
 196      288E 46E6 
 196      EACC C4AD 
 196      F49F 13AC 
 197 01db ACCE 3E9B 		.ascii	"\254\316>\233}\372\244\215\277A\035\326\350"
 197      7DFA A48D 
 197      BF41 1DD6 
 197      E8
 198               		.text
 199               		.section	.gnu.lto_wrReg.1f400114225eb232,"",@progbits
 200 0000 789C 8552 		.string	"x\234\205R\313+DQ\030\377\2763\367a\206\205%%M\263a\345\3320\331I\362\027P\254n\327\035q2
 200      CB2B 4451 
 200      18FF BE33 
 200      F761 8685 
 200      2525 4DB3 
 201 0068 4286 6066 		.string	"B\206`f"
 201      00
 202 006d 25F7 8838 		.ascii	"%\367\2108%\327=<[\334~\306SR\255`\fA\343N\334\252\220g\254\020"
 202      25D7 3D3C 
 202      5BDC 7EC6 
 202      5352 AD60 
 202      0C41 E34E 
 203 0087 04B0 25B7 		.ascii	"\004\260%\267\227{\021\240\017\211@_\021r\245\235K\315\302-T"
 203      977B 11A0 
 203      0F89 405F 
 203      1172 A59D 
 203      4BCD C22D 
 204 009c F9F5 14BC 		.ascii	"\371\365\024\274\261YVK\221\323\275\330T`\021fJ\273\227\372/"
 204      B159 564B 
 204      91D3 BDD8 
 204      5460 1166 
 204      4ABB 97FA 
 205 00b1 16B1 D1AB 		.ascii	"\026\261\321\253\274\037)\372\272<\250\343\032Ej6\367\376\220"
 205      BC1F 29FA 
 205      BA3C A8E3 
 205      1A45 6A36 
 205      F7FE 90
 206 00c4 0CA3 22E9 		.ascii	"\f\243\"\351\315\237\364\375?\351\332W\372\r\\\234\254>ux\374"
 206      CD9F F4FD 
 206      3FE9 DA57 
 206      FA0D 5C9C 
 206      AC3E 7578 
 207 00d9 7558 CBE6 		.ascii	"uX\313\346\263L\245\250\n\216v\206\262\022\355\2434uY4S\204\374"
 207      B34C A5A8 
 207      0A8E 7686 
 207      B212 EDA3 
 207      3475 5934 
 208 00f0 CBC6 CA5C 		.ascii	"\313\306\312\\cy$!\330\342\340\334]\3177\260c\236\315u3\024u"
 208      6379 2421 
 208      D8E2 E0DC 
 208      5DCF 37B0 
GAS LISTING /tmp/cccJIYS7.s 			page 10


 208      639E CD75 
 209 0107 0286 685E 		.ascii	"\002\206h^\312\252\202\022\374\312\367\325H\341\222\363p\275"
 209      CAAA 8212 
 209      FCCA F7D5 
 209      48E1 92F3 
 209      70BD 
 210 0119 A07F 0A03 		.ascii	"\240\177\n\003\004\332\376\023V\266\341\\\335\373\312\331\317"
 210      04DA FE13 
 210      56B6 E15C 
 210      DDFB CAD9 
 210      CF
 211 012a 171F 91E5 		.ascii	"\027\037\221\345\034\366\352\272\272\314\336\371\177\020\257"
 211      1CF6 EABA 
 211      BACC DEF9 
 211      7F10 AF
 212 0139 699B BF0A 		.ascii	"i\233\277\ni\037\263\252\266Q\261\360@\016PJ\003l\232O\253\006"
 212      691F B3AA 
 212      B651 B1F0 
 212      400E 504A 
 212      036C 9A4F 
 213 014f E00E B2A5 		.ascii	"\340\016\262\245\303\246\312p=\353\345\213\345/@L\327?\236\016"
 213      C3A6 CA70 
 213      3DEB E58B 
 213      E52F 404C 
 213      D73F 9E0E 
 214 0163 B787 5B5B 		.ascii	"\267\207[[l\b\031\251D\334\210\322A\303J\307\r:fGS\221!#\225"
 214      6C08 19A9 
 214      44DC 88D2 
 214      41C3 4AC7 
 214      0D3A 6647 
 215 017c A451 2332 		.ascii	"\244Q#2\024\265&[F@5\315dl\"\300=\265G\023f\304VL3\226x\007i"
 215      14B5 265B 
 215      4640 35CD 
 215      646C 22C0 
 215      3DB5 4713 
 216 0199 D89F 81   		.ascii	"\330\237\201"
 217               		.text
 218               		.section	.gnu.lto_wrSensorRegs8_8.1f400114225eb232,"",@progbits
 219 0000 789C 8D53 		.string	"x\234\215SMh\023Q\020\236yo\377\262\256\320\213\236TB\301(TK\005iO\242\036\304\213G\003\3
 219      4D68 1351 
 219      109E 796F 
 219      FFB2 AED0 
 219      8B9E 5442 
 220 00b8 18FE 5B99 		.ascii	"\030\376[\231\242\226\277\024\330\234\310\227}\377`@\333\322"
 220      A296 BF14 
 220      D89C C897 
 220      7DFF 6040 
 220      DBD2 
 221 00ca 25ED 73E1 		.ascii	"%\355s\341\206.\236\213i\341\373\331"
 221      862E 9E8B 
 221      69E1 FBD9 
 222 00d6 3472 06DB 		.string	"4r\006\333\327\210=\212\310\376K\374Z\271\336Nt\361\001\262\016\314g\254\\\363\375\245\30
 222      D788 3D8A 
 222      C8FE 4BFC 
 222      5AB9 DE4E 
 222      74F1 01B2 
 223 01d7 E02D BCFA 		.string	"\340-\274\372\266\362\253\302T\241\324%Y\213\355\257UQ\005\364\350\037y\337\370I\350\350K
GAS LISTING /tmp/cccJIYS7.s 			page 11


 223      B6F2 ABC2 
 223      54A1 D425 
 223      598B EDAF 
 223      5551 05F4 
 224 0275 3F90 0176 		.ascii	"?\220\001v\021\376\002\226\022\004\373"
 224      11FE 0296 
 224      1204 FB
 225               		.text
 226               		.section	.gnu.lto_setRes.part.1.1f400114225eb232,"",@progbits
 227 0000 789C 6550 		.ascii	"x\234eP=K\003A\024\234\331\335|\030\002\372\023\304.\b\242\215"
 227      3D4B 0341 
 227      149C D9DD 
 227      7C18 02FA 
 227      13C4 2E08 
 228 0016 F923 1730 		.ascii	"\371#\0270e8-\266\020A\301\306\342^ \202e\260\262\r\026\022\233"
 228      6538 2DB6 
 228      1041 C1C6 
 228      E25E 2082 
 228      65B0 B20D 
 229 002d 889D 85A5 		.ascii	"\210\235\205\245\225`\360\037l\353_Hs\276w\247\205\346\301\356"
 229      9560 F01F 
 229      6CEB 5F48 
 229      73BE 77A7 
 229      85E6 C1EE 
 230 0041 BC5D 66DE 		.ascii	"\274]f\336\314\256\203\303\377\332\325u@`S\221\r0L?\264\tt\025"
 230      CCAE 83C3 
 230      FFDA D575 
 230      4060 5391 
 230      0D30 4C3F 
 231 0059 3A7A C371 		.ascii	":z\303q\333\223\326\200(\202\363,\20641w0\023\271Mo\017\317A"
 231      DB93 D680 
 231      2882 F32C 
 231      8634 3177 
 231      3013 B94D 
 232 0071 9EE4 46CA 		.ascii	"\236\344F\312\262\210T\227.\221\023G\214d\273\002\307\277\266"
 232      B288 5497 
 232      2E91 1347 
 232      8C64 BB02 
 232      C7BF B6
 233 0084 0B27 A92C 		.ascii	"\013'\251,_\026\235\240\207\006&\"\323\355\021g:\020\246\324"
 233      5F16 9DA0 
 233      8706 2622 
 233      D3ED 1167 
 233      3A10 A6D4 
 234 0098 CA74 37CB 		.ascii	"\312t7\313\214\301\320\017\350*|\3274#\336k\326c\343-q\235\346"
 234      8CC1 D00F 
 234      E82A 7CD7 
 234      3423 DE6B 
 234      D663 E32D 
 235 00af F366 7D03 		.ascii	"\363f}\003\\a\2451\266\"}\316\332\322\334C\267\006 \032k\211"
 235      5C61 A531 
 235      B622 7DCE 
 235      DAD2 DC43 
 235      B706 201A 
 236 00c5 497A FCEA 		.ascii	"Iz\374\352\254i\2329\353\017\262\233;\221ad\353\224\374\341E"
 236      AC69 9A39 
 236      EB0F B29B 
GAS LISTING /tmp/cccJIYS7.s 			page 12


 236      3B91 6164 
 236      EB94 FCE1 
 237 00da 7D4A 5503 		.ascii	"}JU\003\372\265$\252\373\3048\275\366~\207\326\225i\b\245\332"
 237      FAB5 24AA 
 237      FBC4 38BD 
 237      F67E 87D6 
 237      9569 08A5 
 238 00ef D48D B3CB 		.ascii	"\324\215\263\313\376a\177\177/\207??\271\370\006'\343M\233"
 238      FE61 7F7F 
 238      2F87 3F3F 
 238      B9F8 0627 
 238      E34D 9B
 239               		.text
 240               		.section	.gnu.lto_rdReg.1f400114225eb232,"",@progbits
 241 0000 789C B553 		.ascii	"x\234\265S\317k\023A\030\375\336\354n\223&U\nzP\020)=y\352\n"
 241      CF6B 1341 
 241      18FD DEEC 
 241      6E93 2655 
 241      0A7A 5010 
 242 0019 82A5 B7A2 		.ascii	"\202\245\267\242\202\376\001\025\354i\031'\245.&*MR\020\221L"
 242      82FE 0115 
 242      EC69 1927 
 242      A52E 262A 
 242      4D52 1091 
 243 002e E80A 8A0A 		.ascii	"\350\n\212\nA\304\203\275XzPD\251\307\036<\004A\212\005]rk\241"
 243      41C4 83BD 
 243      587A 5044 
 243      A9C7 1E3C 
 243      0441 8A05 
 244 0046 CA7A 5414 		.ascii	"\312zT\024\004\305_\007\327\231\235fK[m\212\340\300\316\267\303"
 244      04C5 5F07 
 244      D799 9D66 
 244      4B5B 6D8A 
 244      E0C0 CEB7 
 245 005b BEF7 FD78 		.ascii	"\276\367\375xo\226\021\243\215k\257zv\333D'T\204E`\215WD\365"
 245      6F96 11A3 
 245      8D6B AF7A 
 245      76DB 4427 
 245      5484 4560 
 246 0073 2C03 F40B 		.ascii	",\003\364\013\201j\f\265Qh(\372iF\312[\321\363\317-\0042\222"
 246      816A 0CB5 
 246      5168 28FA 
 246      6946 CA5B 
 246      D1F3 CF2D 
 247 008a 0DF9 2BAE 		.ascii	"\r\371+\256\301\207\312\332\003\022\240S\352\200l\022\030\326"
 247      C187 CADA 
 247      0312 A053 
 247      EA80 6C12 
 247      18D6 
 248 009c 9799 63CD 		.ascii	"\227\231c\315(\216W~|x\373\036\273zm\224@y\342\230Q9\325r(\220"
 248      288E 577E 
 248      7C78 FB1E 
 248      BB7A 6D94 
 248      4079 E298 
 249 00b6 B2D1 D73E 		.ascii	"\262\321\327>\213\204<\242v\335\303I0\035\255\220\246\242p\241"
 249      8B84 3CA2 
 249      76DD C349 
GAS LISTING /tmp/cccJIYS7.s 			page 13


 249      301D AD90 
 249      A6A2 70A1 
 250 00ca 8B63 168E 		.ascii	"\213c\026\216\372|\211~\312\253\262\327\207%`\212\371Ps\204t"
 250      FA7C 897E 
 250      CAAB B2D7 
 250      8725 608A 
 250      F950 7384 
 251 00df 255A 5AC8 		.ascii	"%ZZ\310lB9\002fx\335\035\0351a\217\342t%\234{\313[P\306a'\360"
 251      6C42 3902 
 251      6678 DD1D 
 251      1D31 618F 
 251      E274 259C 
 252 00fb 0306 FE92 		.ascii	"\003\006\376\222\236\315/}\0352\370i\272[\017\352\322\361\221"
 252      9ECD 2F7D 
 252      1D32 F869 
 252      BA5B 0FEA 
 252      D2F1 91
 253 010e D198 EC53 		.ascii	"\321\230\354S#C6\255\225\271\255\273\013)\370\364\340\316\365"
 253      2343 36AD 
 253      95B9 ADBB 
 253      0B29 F8F4 
 253      E0CE F5
 254 0121 FDAB 9326 		.ascii	"\375\253\223&J6\232\255\305\033\373\344\023U-\216k>\272\031\035"
 254      4A36 9AAD 
 254      C51B FBE4 
 254      1355 2D8E 
 254      6B3E BA19 
 255 0136 5AD3 B1CF 		.ascii	"Z\323\261\317\350h\257\327\321X\320\\^\274\231Y#\346\030\ru\""
 255      E868 AFD7 
 255      D158 D05C 
 255      5EBC 9959 
 255      23E6 180D 
 256 014c B645 6EBE 		.ascii	"\266En\276\370h\255V\237\0167T?\3269\211\031Z\250\233\222\254"
 256      F868 AD56 
 256      9F0E 3754 
 256      3FD6 3989 
 256      195A A89B 
 257 0162 54AB BC80 		.ascii	"T\253\274\200\315\3618\0210\241\346\344e\245V\217\236|*Z\331"
 257      CDF1 3811 
 257      30A1 E6E4 
 257      65A5 568F 
 257      9E7C 2A5A 
 258 0177 966D AF3B 		.ascii	"\226m\257;\332v\324\204\341\266mA\364\346>\fg\034\371\224\264"
 258      DA76 D484 
 258      E1B6 6D41 
 258      F4E6 3E0C 
 258      671C F994 
 259 018c 4398 3E0C 		.ascii	"C\230>\f\032\n\275\323\270\366\375\333\177p\215\343\241\352\361"
 259      1A0A BDD3 
 259      B8F6 FDDB 
 259      7F70 8DE3 
 259      A1EA F1
 260 019f 5F6C E378 		.ascii	"_l\343x\324\221\231\372v\355\313_|\343\230\333F\226\255\215\233"
 260      D491 99FA 
 260      76ED CB5F 
 260      7CE3 98DB 
 260      4696 AD8D 
GAS LISTING /tmp/cccJIYS7.s 			page 14


 261 01b4 FF83 712D 		.ascii	"\377\203q-\252G\357\216\247\352\032\336\2102M\375\214\332\223"
 261      AA47 EF8E 
 261      A7EA 1ADE 
 261      8832 4DFD 
 261      8CDA 93
 262 01c7 EEF3 9383 		.ascii	"\356\363\223\203\207\007\017\016\b\262\n\274\322\357V\313\023"
 262      8707 0F0E 
 262      08B2 0ABC 
 262      D2EF 56CB 
 262      13
 263 01d8 6ED1 3FED 		.ascii	"n\321?\355\362\311\t\327?'\212\325\302\230[\255\370E\2670V\344"
 263      F2C9 09D7 
 263      3F27 8AD5 
 263      C298 5BAD 
 263      F845 B730 
 264 01ee 1707 CE90 		.ascii	"\027\007\316\220\343y\225\322\205\234\332}q\266\354\025\204\355"
 264      E379 95D2 
 264      859C DA7D 
 264      71B6 EC15 
 264      84ED 
 265 0200 79A5 F26F 		.ascii	"y\245\362o{\374\022\226"
 265      7BFC 1296 
 266               		.text
 267               		.section	.gnu.lto_setColorSpace.part.0.1f400114225eb232,"",@progbits
 268 0000 789C 8D51 		.string	"x\234\215Q=h\024A\024~\337\354l.9\243\230\322F\302u\"dm4\205\275\215\205M\002\246Z\326\27
 268      3D68 1441 
 268      147E DFEC 
 268      6C2E 39A3 
 268      98D2 46C2 
 269 0075 D807 81BA 		.ascii	"\330\007\201\272R\004\350\316\301\202e\205\326\215Y\313^\346"
 269      5204 E8CE 
 269      C182 6585 
 269      D68D 59CB 
 269      5EE6 
 270 0087 2FA4 796E 		.ascii	"/\244yn\356\231<\357jp\227q\220\002]\206\006F]\020\370\273\255"
 270      EE99 3CEF 
 270      6A70 9771 
 270      9002 5D86 
 270      0646 5D10 
 271 009e 03F6 B38F 		.ascii	"\003\366\263\217O\356\237xd2\3237\277\362.\227\005\202\316\356"
 271      4FEE 9F78 
 271      6432 D337 
 271      BFF2 2E97 
 271      0582 CEEE 
 272 00b2 4127 3D54 		.ascii	"A'=T\376\003\2726\374\364z\245\264\327S\n:\377\177\300ls\343"
 272      FE03 BA36 
 272      FCF4 7AA5 
 272      B4D7 530A 
 272      3AFF 7FC0 
 273 00c9 2B7A FB7A 		.ascii	"+z\373z\206\202.\034&w[\230,\317w\266\312%P\202-Tl2\244\036\317"
 273      8682 2E1C 
 273      2677 5B98 
 273      2CCF 77B6 
 273      CA25 5082 
 274 00e4 3099 60DD 		.ascii	"0\231`\335\375+\207\231\341\333:5\003ic0\013\341\342\03361\301"
 274      FD2B 8799 
 274      E1DB 3A35 
GAS LISTING /tmp/cccJIYS7.s 			page 15


 274      0369 6330 
 274      0BE1 E21B 
 275 00fb 802D AEDA 		.ascii	"\200-\256\332\272w\324\313\226\277\224}\206\350\026\375\340I"
 275      BA77 D4CB 
 275      96BF 947D 
 275      86E8 16FD 
 275      E049 
 276 010d 8E6B 8C28 		.ascii	"\216k\214(\370\3266\363\320\2309\215R\035\370S\247Y\236\203\256"
 276      F8D6 36F3 
 276      D098 398D 
 276      521D F853 
 276      A759 9E83 
 277 0122 0C4A 4577 		.ascii	"\fJEw\257f\227\211\256\002\005\333\230\202\337\270\235)\234`"
 277      AF66 9789 
 277      AE02 05DB 
 277      9882 DFB8 
 277      9D29 9C60 
 278 0136 7CD9 E1BF 		.ascii	"|\331\341\277=}\260t\262 \330`\202\004\233\216\306'\207K\257"
 278      3D7D B074 
 278      B220 D860 
 278      8204 9B8E 
 278      C627 874B 
 279 014b 3E04 7E45 		.ascii	">\004~E\303\237\253\237a\356\f\315\367</\271\005]<\314g+\346"
 279      C39F AB9F 
 279      61EE 0CCD 
 279      F73C 2FB9 
 279      055D 3CCC 
 280 0162 198B 5108 		.ascii	"\031\213Q\b\250\230\305\3519\242 \023l{\241\026*\315m\0265nE"
 280      A898 C5E9 
 280      39A2 2013 
 280      6C7B A116 
 280      2ACD 6D16 
 281 0179 DDCD 5607 		.ascii	"\335\315V\007#\036\270\017qT\371\342\335\tx:\215c\236v\226\371"
 281      231E B80F 
 281      7154 F9E2 
 281      DD09 783A 
 281      8D63 9E76 
 282 018f 0F5A CBE3 		.ascii	"\017Z\313\343\276\247\305\354\361\251\302\017\362[\201-\265f"
 282      BEA7 C5EC 
 282      F1A9 C20F 
 282      F25B 812D 
 282      B566 
 283 01a1 8C35 16A6 		.ascii	"\2145\026\246\317M\237\231R\024\252F\332hV\242N\253\031\245\372"
 283      CF4D 9F99 
 283      5214 AA46 
 283      DA68 56A2 
 283      4EAB 19A5 
 284 01b6 4A94 2C34 		.ascii	"J\224,4#}C\245\235j-\352\264u\032Ukirs\352\032\205q\334\256\317"
 284      237D 43A5 
 284      9D6A 2DEA 
 284      B475 1A55 
 284      6B69 7273 
 285 01d1 97F9 D6EA 		.ascii	"\227\371\326\352z+\256*\331\256\325\347e\034\327[\277\001\341"
 285      7A2B AE2A 
 285      D9AE D5E7 
 285      651C D75B 
 285      BF01 E1
GAS LISTING /tmp/cccJIYS7.s 			page 16


 286 01e4 73C0 FD   		.ascii	"s\300\375"
 287               		.text
 288               		.section	.gnu.lto_setColorSpace.1f400114225eb232,"",@progbits
 289 0000 789C 8D50 		.string	"x\234\215P\273J\304@\024\275g^\033\265\021\367\007lm\304\312\375\004ka\003n)\021$E\260\26
 289      BB4A C440 
 289      14BD 675E 
 289      1BB5 11F7 
 289      076C 6DC4 
 290 00b8 CFB2 267B 		.ascii	"\317\262&{\275\022H8\2227\311\347?\2229R4>'6\255\223.\1775\217"
 290      BD12 4838 
 290      9237 C9E7 
 290      3F92 3952 
 290      343E 2736 
 291 00d2 F33E 9CF0 		.ascii	"\363>\234\360\224\212\362\354k\321#DG\364\255O\2551\226\324\246"
 291      948A F2EC 
 291      6BD1 2344 
 291      47F4 AD4F 
 291      AD31 96D4 
 292 00e7 2C72 A3F5 		.ascii	",r\243\365 \005\317 \353\2764(\307\246h\211r+z\034\315)\312\244"
 292      2005 CF20 
 292      EBBE 3428 
 292      C7A6 6889 
 292      722B 7A1C 
 293 00ff 7E48 0A15 		.ascii	"~H\n\025\206e{XxG\267\377s\324\311\240\346\035)\367\343MU3\367"
 293      8665 7B58 
 293      7847 B7FF 
 293      73D4 C9A0 
 293      E61D 29F7 
 294 0118 4179 79B7 		.ascii	"Ayy\267\026D\375\352\033\302\264ZW\013\007\207\275\315\336\306"
 294      1644 FDEA 
 294      1BC2 B45A 
 294      570B 0787 
 294      BDCD DEC6 
 295 012c 7A42 BF78 		.ascii	"zB\277x\202w@"
 295      8277 40
 296               		.text
 297               		.section	.gnu.lto_setRes.1f400114225eb232,"",@progbits
 298 0000 789C 9D91 		.ascii	"x\234\235\221\261K\303@\024\306\337w\271\273&\352 \366\037pu"
 298      B14B C340 
 298      14C6 DF77 
 298      B9BB 26EA 
 298      20F6 1F70 
 299 0015 1127 FB0F 		.ascii	"\021'\373\017\2708\n-\330Q\"H\206\342\346\342\320\013\266\340"
 299      B838 0A2D 
 299      D851 2248 
 299      86E2 E6E2 
 299      D00B B6E0 
 300 0029 A0D0 D14D 		.ascii	"\240\320\321M\004\027\007\353\254(t\350\326\242\264\223\203C"
 300      0417 07EB 
 300      AC28 74E8 
 300      D6A2 B493 
 300      8343 
 301 003b 5637 6797 		.ascii	"V7g\227\372\356.\221\320.b \357\335\275\357}\357~\271\b\0224"
 301      FAEE 2E91 
 301      D02E 6220 
 301      EFDD BDEF 
 301      7DEF 7EB9 
GAS LISTING /tmp/cccJIYS7.s 			page 17


 302 0052 FFEC F1BB 		.ascii	"\377\354\361\273\303\345e\316\250\020D\357\225(\r\205\324\303"
 302      C3E5 65CE 
 302      A810 44EF 
 302      9528 0D85 
 302      D4C3 
 303 0064 2A99 3070 		.ascii	"*\2310pQ\272\250|\005\332\266@\372\234\206\252Xh\300.\b\324\026"
 303      51BA A87C 
 303      05DA B640 
 303      FA9C 86AA 
 303      5868 C02E 
 304 007b 8154 1AED 		.ascii	"\201T\032\355&\334\031\017b\220\315f\375\347\351\355\007F\"\002"
 304      26DC 190F 
 304      6290 CD66 
 304      FDE7 E9ED 
 304      0746 2202 
 305 008f 5AAE AEA8 		.ascii	"Z\256\256\250cLo\235(v\333:G\353o@\330\034\214\251\233]\357\036"
 305      634C 6F9D 
 305      2876 DB3A 
 305      47EB 6F40 
 305      D81C 8CA9 
 306 00a7 E006 8A8E 		.ascii	"\340\006\212\216\200K\272H;f5\361#\017\341\263\257\016&S\260"
 306      804B BA48 
 306      3B66 35F1 
 306      230F E1B3 
 306      AF0E 2653 
 307 00bc B0CF 015E 		.ascii	"\260\317\001^\025e\365}\255\020\341\304\240,~\375\212\302\211"
 307      1565 F57D 
 307      AD10 E1C4 
 307      A02C 7EFD 
 307      8AC2 89
 308 00cf B274 390D 		.ascii	"\262t9\rn\035V\203\021\177\234\347p\203\337\350,\337\022\235"
 308      6E1D 5683 
 308      117F 9CE7 
 308      7083 DFE8 
 308      2CDF 129D 
 309 00e3 D2B7 39B7 		.ascii	"\322\2679\267T\"\316\211\222|<\233\345\2749\260\346nv\177\247"
 309      5422 CE89 
 309      927C 3C9B 
 309      E5BC 39B0 
 309      E66E 767F 
 310 00f8 17FC 32CE 		.ascii	"\027\3742\316\231-\212Z\361I\3624m=\235\254\377\271\264\340\251"
 310      992D 8A5A 
 310      F149 F234 
 310      6D3D 9DAC 
 310      FFB9 B4E0 
 311 010d C4F9 59B6 		.ascii	"\304\371Y\266reL3A\330\202\312\373\022D\005\210\232\007\221\036"
 311      7265 4C33 
 311      41D8 82CA 
 311      FB12 4405 
 311      889A 0791 
 312 0122 E4F1 1F20 		.ascii	"\344\361\037 O\177\006\321\213 \332\375\3312\t_\332\204\322\354"
 312      4F7F 06D1 
 312      8B20 DAFD 
 312      D932 095F 
 312      DA84 D2EC 
 313 0136 65A3 18EA 		.ascii	"e\243\030\352\237:\013\334jI\242\343\223\332vmk3\246\037P\324"
 313      9F3A 0BDC 
GAS LISTING /tmp/cccJIYS7.s 			page 18


 313      6A49 A2E3 
 313      93DA 766D 
 313      6B33 A61F 
 314 014c 8CA4      		.ascii	"\214\244"
 315               		.text
 316               		.section	.gnu.lto_camInit.1f400114225eb232,"",@progbits
 317 0000 789C 8591 		.string	"x\234\205\221\277K\303@\024\307\337\273\244M[\027\021\034\004\221\322\315\245q\321\256\01
 317      BF4B C340 
 317      14C7 DFBB 
 317      A44D 5B17 
 317      111C 0491 
 318 0065 AA11 82E8 		.string	"\252\021\202\350\275"
 318      BD00 
 319 006b 4285 6065 		.ascii	"B\205`e\021e\3559\261\035\327=\373\274?\270\304[\242\211\223"
 319      1165 ED39 
 319      B11D D73D 
 319      FBBC 3FB8 
 319      C45B A289 
 320 0080 10D4 386F 		.ascii	"\020\3248o\304\001\250\254H\213\335\303\346\221x\252t\240\356"
 320      C401 A8AC 
 320      488B DDC3 
 320      E691 78AA 
 320      74A0 EE
 321 0093 5CBD A089 		.ascii	"\\\275\240\211-\f\211\317\233\360\301\267\3710CQ\356;. C\034"
 321      2D0C 89CF 
 321      9BF0 C1B7 
 321      F930 4351 
 321      EE3B 2E20 
 322 00a9 F185 2330 		.ascii	"\361\205#0\301A\007j\257\307\207\273\023\201w\002ZB\354n{o\234"
 322      C141 076A 
 322      AFC7 87BB 
 322      1381 7702 
 322      5A42 EC6E 
 323 00c0 5F08 DC75 		.ascii	"_\b\334u+\f\025\002\272\347\"I5.%\244\376N&\301\246\375\330\336"
 323      2B0C 1502 
 323      BAE7 2249 
 323      352E 25A4 
 323      FE4E 26C1 
 324 00d8 D77E C030 		.ascii	"\327~\3000\201\351A`/\226\275\363\254\006\335\277\232O\310\267"
 324      81E9 4160 
 324      2F96 BDF3 
 324      AC06 DDBF 
 324      9A4F C8B7 
 325 00ec 6CFE EEBA 		.ascii	"l\376\356\272\232\354>;\330\304OM1\230y?\274FQ1\361DND\242a\376"
 325      9AEC 3E3B 
 325      D8C4 4F4D 
 325      3198 793F 
 325      BC46 5131 
 326 0107 608A E811 		.ascii	"`\212\350\021\031\335\271>\215\375\233W\224\242\33279\342|\236"
 326      19DD B93E 
 326      8DFD 9B57 
 326      94A2 DA37 
 326      39E2 7C9E 
 327 011b 612C 8741 		.ascii	"a,\207A\007\201\016yh\335i\017\034\365\250/q\177\322]\250:7\223"
 327      0781 0E79 
 327      68DD 690F 
 327      1CF5 A82F 
GAS LISTING /tmp/cccJIYS7.s 			page 19


 327      717F D25D 
 328 0133 3DC4 5F69 		.ascii	"=\304_iQ.~\235w\351\350Z95\223\232JRH\350\245B^\267\330\222n"
 328      512E 7E9D 
 328      77E9 E85A 
 328      3935 939A 
 328      4A52 48E8 
 329 014e 96F3 3A5B 		.ascii	"\226\363:[\245V)\223\325KEf\351\231\254en$\227!d\030\305\334"
 329      A556 2993 
 329      D54B 4566 
 329      E999 AC65 
 329      6E24 9721 
 330 0166 7A4C EC8C 		.ascii	"zL\354\214\256\024\214\fU\r#W\370\006\360P\222z"
 330      AE14 8C0C 
 330      550D 2357 
 330      F806 F050 
 330      927A 
 331               		.text
 332               		.section	.gnu.lto_.symbol_nodes.1f400114225eb232,"",@progbits
 333 0000 789C 4D4F 		.string	"x\234MO;N\0031\024\034\373\331^;\033\026\302\362\021\325r48\311\213\026)\212D\303\005@\"i
 333      3B4E 0331 
 333      141C FBD9 
 333      5E3B 1B16 
 333      C2F2 11D5 
 334 002f C23F C02E 		.string	"\302?\300.<\232\317\233gKH|\n\244#\033\006\256\236"
 334      3C9A CF9B 
 334      674B 487C 
 334      0AA4 231B 
 334      06AE 9E00 
 335 0043 E6EB C733 		.ascii	"\346\353\3073\271\313\342\227-\317\345\036\313\202\3553\025l"
 335      B9CB E297 
 335      2DCF E51E 
 335      CB82 ED33 
 335      156C 
 336 0055 C62A B39B 		.ascii	"\306*\263\233\245\220\007\254\013\357\224\315\037\023\272\202"
 336      A590 07AC 
 336      0BEF 94CD 
 336      1F13 BA82 
 337 0065 6292 2D57 		.ascii	"b\222-WE\276c[$j\021\022\207\354\376\023zB^\323S\031\234#\236"
 337      45BE 635B 
 337      246A 1112 
 337      87EC FE13 
 337      7A42 5ED3 
 338 007e 148E D5C1 		.ascii	"\024\216\325\301q*8\307\\\027\316\216\361\2328\341i\322\346s"
 338      712A 38C7 
 338      5C17 CE8E 
 338      F19A 38E1 
 338      69D2 E673 
 339 0092 4168 717F 		.ascii	"Ahq\177\373rY\221\377\360(H\002\033C\004\364\351\366[\004\372"
 339      FB72 5991 
 339      FFF0 2848 
 339      021B 4304 
 339      F4E9 F65B 
 340 00a8 D76F 414A 		.ascii	"\327oAJb\225q\223q\214\330b=x\324\n\375\303\363]MF\247\200Qi"
 340      6295 7193 
 340      718C D862 
 340      3D78 D40A 
 340      FDC3 F35D 
GAS LISTING /tmp/cccJIYS7.s 			page 20


 341 00c2 C0E6 029B 		.ascii	"\300\346\002\233\013l.\260-.\206\344\257\206\254G$\214C\362\327"
 341      0B6C 2EB0 
 341      2D2E 86E4 
 341      AF86 AC47 
 341      248C 43F2 
 342 00d7 8B8F 8E9C 		.ascii	"\213\217\216\234/\016\334\265x\013s\316\246y\247S_\355\367\275"
 342      2F0E DCB5 
 342      780B 73CE 
 342      A679 A753 
 342      5FED F7BD 
 343 00eb 7754 3BF4 		.ascii	"wT;\364\333.2\017\215\211b\243\242\330\370\3506\2621\261~\361"
 343      DB2E 320F 
 343      8D89 62A3 
 343      A2D8 F8E8 
 343      36B2 31B1 
 344 0101 4534 53E9 		.ascii	"E4S\351a3\277(b~\270\327\303\317\360\003C*\217\224"
 344      6133 BF28 
 344      627E B8D7 
 344      C3CF F003 
 344      432A 8F94 
 345               		.text
 346               		.section	.gnu.lto_.refs.1f400114225eb232,"",@progbits
 347 0000 789C 6362 		.string	"x\234cb`b\220d\200"
 347      6062 9064 
 347      8000 
 348 000a 4636 2676 		.string	"F6&vFN&.&n&\036&^&>&~&\001FA&!\006"
 348      464E 262E 
 348      266E 261E 
 348      265E 263E 
 348      267E 2601 
 349 0024 0B5D 00   		.string	"\013]"
 350 0027 C7        		.ascii	"\307"
 351               		.text
 352               		.section	.gnu.lto_.decls.1f400114225eb232,"",@progbits
 353 0000 789C DD9C 		.string	"x\234\335\234yt\024E\032\300\273zf\022\022\022n\271T\b\b\b\250$\334xq#\260\"G\270\275\306
 353      7974 1445 
 353      1AC0 BB7A 
 353      6612 1212 
 353      6EB9 5408 
 354 00c6 2E83 7119 		.ascii	".\203q\031\217\313\003\270\314A\n\3670\332O#\262\323\261\256"
 354      8FCB 03B8 
 354      CC41 0AF7 
 354      30DA 4F23 
 354      B2D3 B1AE 
 355 00da 0D71 C9C1 		.ascii	"\rq\311\301\307\215p\311 \372f\340s\327\022.@\230L\325\222%>"
 355      C78D 70C9 
 355      20FA 66E0 
 355      73D7 122E 
 355      4098 4CD5 
 356 00f1 0C5D 5348 		.ascii	"\f]SH{-U\326f+\\\316\220:*\251w:\0317\355Lu\360AE\336\3069\322"
 356      7B2D 55D6 
 356      662B 5CCE 
 356      903A 2AA9 
 356      773A 1937 
 357 010f 8671 FC39 		.ascii	"\206q\3749._\nm]\020\332\252\002\332\272@\3322\352~%\264c\370"
 357      2E5F 0A6D 
 357      5D10 DAAA 
GAS LISTING /tmp/cccJIYS7.s 			page 21


 357      02DA BA40 
 357      DA32 EA7E 
 358 0127 DC88 85CD 		.ascii	"\334\210\205\315\264&m\235\367\350\263\020i\303\216\243\355;"
 358      B426 6D9D 
 358      F7E8 B310 
 358      69C3 8EA3 
 358      ED3B 
 359 0139 436E 0D2E 		.ascii	"Cn\r.\337\b\362j\211\274*G\233mp\345\353p\371\026\037_\217__"
 359      DF08 F26A 
 359      89BC 2A47 
 359      9B6D 70E5 
 359      EB70 F916 
 360 0152 C2AF EDF0 		.ascii	"\302\257\355\360\353\r\252\245\263\241\323yb\313\313\270\034"
 360      EB0D AAA5 
 360      B3A1 D379 
 360      62CB CBB8 
 360      1C
 361 0163 20C7 B544 		.ascii	" \307\265D\266Q\347;A\216\221CF\354O8\3448m\353\254Zyz\231\324"
 361      B651 E73B 
 361      418E 9143 
 361      46EC 4F38 
 361      E438 6DEB 
 362 017d 0F10 C6CE 		.ascii	"\017\020\306\316A\343}\027\325\312\265\033U\276m#7\033\01368"
 362      41E3 7D17 
 362      D5CA B51B 
 362      55BE 6D23 
 362      371B 0B36 
 363 0192 FD27 FACE 		.ascii	"\375'\372\316\351\263\256\370\365\"i'\205\264%\372\356\002\261"
 363      E9B3 AEF8 
 363      F522 6927 
 363      85B4 25FA 
 363      EE02 B1
 364 01a5 2920 E460 		.ascii	") \344`\210\310=\356\220k\267_Elz\225\330d\313\261\345\332z\331"
 364      88C8 3DEE 
 364      906B B75F 
 364      456C 7A95 
 364      D864 CBB1 
 365 01bd 728D B66A 		.ascii	"r\215\266j\211|[\356%bw7\325\352_\335\005\273\215\276\330@\261"
 365      897C 5BEE 
 365      2562 7737 
 365      D5EA 5FDD 
 365      05BB 8DBE 
 366 01d4 FAFB 7141 		.ascii	"\372\373qA\336M\3708\005Y}\336\366g\032\221\021\"\3756\023\277"
 366      DE4D F838 
 366      0559 7DDE 
 366      F667 1A91 
 366      1122 FD36 
 367 01ea DE8C EBDD 		.ascii	"\336\214\353\335\202K\017\\\262U\253\377\016\020\3544\372{:\221"
 367      824B 0F5C 
 367      B255 ABFF 
 367      0E10 EC34 
 367      FA7B 3A91 
 368 01fe 63C4 2F07 		.ascii	"c\304/\007\327\273\352\022\277#\216\370\005\t\347\214\241!\263"
 368      D7BB EA12 
 368      BF23 8EF8 
 368      0509 E78C 
 368      A121 B3
GAS LISTING /tmp/cccJIYS7.s 			page 22


 369 0211 053E D713 		.ascii	"\005>\327\023\327\355\205Ko\\\372\250\326X1^\220i\214/b\216\310"
 369      D7ED 854B 
 369      6F5C FAA8 
 369      D658 315E 
 369      9069 8C2F 
 370 0228 F2DE 901D 		.ascii	"\362\336\220\035w\310\016\021\376\222#\206\265$\206\342\230\224"
 370      77C8 0E11 
 370      FE92 2386 
 370      B524 86E2 
 370      9894 
 371 023a A62C D7F5 		.ascii	"\246,\327\365\n\275\272\\\357\264\005\267=\ri\250Q\232\222e\036"
 371      0ABD BA5C 
 371      EFB4 05B7 
 371      3D0D 69A8 
 371      519A 9265 
 372 024f 64A4 9966 		.ascii	"d\244\231ftV\366\350ze\365\373\211\032U\327\203\032\332\215\322"
 372      7456 F6E8 
 372      7A65 F5FB 
 372      891A 55D7 
 372      831A DA8D 
 373 0264 70BA 7740 		.ascii	"p\272w@Jwe\237\216?\321\365\335\r\225\344\207\206R\323\222\336"
 373      4A77 659F 
 373      8E3F D1F5 
 373      DD0D 95E4 
 373      8786 52D3 
 374 027a 6B68 0FEA 		.ascii	"kh\017\352\256Xr\314\217\311\2011\2047\246\332\350\353\364\f"
 374      AE58 72CC 
 374      8FC9 8131 
 374      8437 A6DA 
 374      E8EB F40C 
 375 028e 8736 0D6C 		.ascii	"\2076\rlm\020\325&\376\257T|\252\312\324\244'\242\315Zr\220 "
 375      6D10 D526 
 375      FEAF 547C 
 375      AACA D4A4 
 375      27A2 CD5A 
 376 02a5 17F1 7251 		.ascii	"\027\361rQ\032;H\340&\033*+\r\241\273\312\365\026[\0325U\260"
 376      1A3B 48E0 
 376      261B 2A2B 
 376      0DA1 BBCA 
 376      F516 5B1A 
 377 02bc 3DBA BE0B 		.ascii	"=\272\276\013\0274\277\231\262\316|S\376\036~C\325ib\253c\244"
 377      1734 BF99 
 377      B2CE 7C53 
 377      FE1E 7E43 
 377      D569 62AB 
 378 02d2 A3AA DC8A 		.ascii	"\243\252\334\212\024Z\257BZOC\373\221\212\237\177\205\232\021"
 378      145A AF42 
 378      5A4F 43FB 
 378      918A 9F7F 
 378      859A 11
 379 02e5 654C 43F4 		.ascii	"eLC\364\352m\037\034C\246[\215O\024\316\022\356\321A\301:U\304"
 379      EA6D 1F1C 
 379      43A6 5B8D 
 379      4F14 CE12 
 379      EED1 41C1 
 380 02fc 5FB9 98A5 		.ascii	"_\271\230\245/\n\330\246\217C\244I7O\221C\353A*\360\215\035\304"
 380      2F0A D8A6 
GAS LISTING /tmp/cccJIYS7.s 			page 23


 380      8F43 A449 
 380      374F 9143 
 380      EB41 2AF0 
 381 0313 B6A2 77A9 		.ascii	"\266\242w\251#\247zh\r\271\264\346p\265\245\274\206^F\035\360"
 381      23A7 7A68 
 381      0DB9 B4E6 
 381      70B5 A5BC 
 381      865E 461D 
 382 0328 F301 FC4C 		.ascii	"\363\001\374L\037\204\231g\267\324\310<\313\371\233\223.T\324"
 382      1F84 9967 
 382      B7D4 C83C 
 382      CBF9 9B93 
 382      2E54 D4
 383 033b D041 D494 		.ascii	"\320A\324\224\245\254N\342e\326ps\270A\034\"\231@=A\016R8\235"
 383      A5AC 4EE2 
 383      65D6 7073 
 383      B841 1C22 
 383      9940 3D41 
 384 0353 ED5A D266 		.ascii	"\355Z\322f\366\"\232\337\362\\\321\320KL\367\223\310n\243m\035"
 384      F622 9ADF 
 384      F25C D1D0 
 384      4B4C F793 
 384      C86E A36D 
 385 0368 568A 3535 		.ascii	"V\21255\364\272o3\337\220\230\231\301\231\371F]f\276\352\333"
 385      F4BA 6F33 
 385      DF90 9899 
 385      C199 F946 
 385      5D66 BEEA 
 386 037d CCF1 7613 		.ascii	"\314\361v\023\351uX)T\324\320\333\276\215<,12\310\031y\270.#"
 386      E975 5829 
 386      54D4 D0DB 
 386      BE8D 3C2C 
 386      3132 C819 
 387 0395 DFF4 6DE4 		.ascii	"\337\364m\344.\032\241\026uX)\326\324\320o}\233\371\216\304L"
 387      2E1A A116 
 387      7558 29D6 
 387      D4D0 6F7D 
 387      9BF9 8EC4 
 388 03aa 6767 63B5 		.ascii	"ggc\265\244\315\034\361\237\262\315\3556\336V\353\312Y\261\252"
 388      A4CD 1CF1 
 388      9FB2 CDED 
 388      36DE 56EB 
 388      CA59 B1AA 
 389 03be 86DE F36D 		.ascii	"\206\336\363m\3501\211\241\333\235\023\024\253&m'\316,MU\226"
 389      E831 89A1 
 389      DB9D 1314 
 389      AB26 6D27 
 389      CE2C 4D55 
 390 03d3 9AB3 4779 		.ascii	"\232\263Gy\271t\366P\215\311VC\307Q*7\n\307O\224\353M\310y`\f"
 390      B974 F650 
 390      8DC9 5643 
 390      C751 2A37 
 390      0AC7 4F94 
 391 03ed 0E18 5255 		.ascii	"\016\030RUe\266\025\347`\032;U"
 391      65B6 15E7 
 391      601A 3B55 
 392 03f9 444F 2147 		.string	"DO!G\305Rz\326^\271\270\315?\236\324\326\221\241\367\tQo\034Z\373|\335z?\215\222\025_\213
GAS LISTING /tmp/cccJIYS7.s 			page 24


 392      C552 7AD6 
 392      5EB9 B8CD 
 392      3F9E D4D6 
 392      91A1 F709 
 393 04fa 8E68 F98F 		.ascii	"\216h\371\217d\213\253k\342G\327\334\244/\322\257&\022\310\n"
 393      648B AB6B 
 393      E247 D7DC 
 393      A42F D2AF 
 393      2612 C80A 
 394 050e BAAA 9C75 		.ascii	"\272\252\234u\327\364/\234\246\347\315J\227<\205q\035\027\306"
 394      D7F4 2F9C 
 394      A6E7 CD4A 
 394      973C 8571 
 394      1D17 C6
 395 0521 CFBD 9034 		.ascii	"\317\275\2204\214\253\343\025\255\025\032\305Kb\024\377\351\032"
 395      8CAB E315 
 395      AD15 1AC5 
 395      4B62 14FF 
 395      E91A 
 396 0533 C533 1FAD 		.ascii	"\3053\037\255\221D\021\310\370\313|\020\271\311\210\233\177\222"
 396      9144 11C8 
 396      F8CB 7C10 
 396      B9C9 889B 
 396      7F92 
 397 0545 06F6 6FD9 		.ascii	"\006\366o\331\300.\004\375\357\356\256<\267\321r\210\001\252"
 397      C02E 04FD 
 397      EFEE AE3C 
 397      B7D1 7288 
 397      01AA 
 398 0557 CA65 B352 		.ascii	"\312e\263R-s\210\260\034'\315\273\347u\255\350\221\177\273x\244"
 398      2D73 88B0 
 398      1C27 CDBB 
 398      E775 ADE8 
 398      917F BB78 
 399 056c 3A7E 74FD 		.ascii	":~t\375\376\301$\314\236\035r\325e\314\273\352>*U\362\243\322"
 399      FEC1 24CC 
 399      9E1D 72D5 
 399      65CC BBEA 
 399      3E2A 55F2 
 400 0582 1551 A984 		.ascii	"\025Q\251\204k\352m\373h\025\r\223\325\211Te\225\352\352\261"
 400      6BEA 6DFB 
 400      6815 0D93 
 400      D589 5465 
 400      95EA EAB1 
 401 0596 4F1D C9A7 		.ascii	"O\035\311\247\241\257\315\013\224r\325[79"
 401      A1AF CD0B 
 401      9472 D55B 
 401      3739 
 402 05a4 2474 1319 		.string	"$t\023\031Gt\255P\335\034xe\255\177\007.U\223\035\270^\365\342\300%\252\340\300e\311J\355
 402      4774 AD50 
 402      DD1C 7865 
 402      AD7F 072E 
 402      5593 1DB8 
 403 06a5 D486 8754 		.string	"\324\206\207T\n\005\001\250-\017=F\241\020"
 403      0A05 01A8 
 403      2D0F 3D46 
 403      A110 00
GAS LISTING /tmp/cccJIYS7.s 			page 25


 404 06b4 0578 289D 		.string	"\005x(\235B)"
 404      4229 00
 405 06bb 9440 3C95 		.string	"\224@<\225@,\226\361\232%\270\213\224\353\372\367\211D@C\257\231\221\334,F2\371{\202}\\(O
 405      402C 96F1 
 405      9A25 B88B 
 405      94EB FAF7 
 405      8944 4043 
 406 0711 A05C 1EBA 		.string	"\240\\\036\272\223Bi"
 406      9342 6900 
 407 0719 3491 875E 		.string	"4\221\207^d\372\245\003\324$\236\372\222Q\r\001\352N\236\032L\241\214\372v\207\035wm\301\
 407      64FA A503 
 407      D424 9EFA 
 407      9251 0D01 
 407      EA4E 9E1A 
 408 0766 3AF7 A0CB 		.ascii	":\367\240\313X\363Z\335c\315\273?\320X\243\374\304\307\232\370"
 408      58F3 5ADD 
 408      63CD BB3F 
 408      D058 A3FC 
 408      C4C7 9AF8 
 409 077a 8F37 D6E8 		.ascii	"\2177\326\350\365\032k\364\037o\254\351X\237\261\346\301\372"
 409      F51A 6BF4 
 409      1F6F ACE9 
 409      589F B1E6 
 409      C1FA 
 410 078c 0C35 FAFF 		.ascii	"\f5\372\377k\250\371n\261\2637\0345{\3031\2617$\177\253\3731"
 410      6BA8 F96E 
 410      B1B3 371C 
 410      357B C331 
 410      B137 247F 
 411 07a3 D71B 7611 		.ascii	"\327\033v\021\324Co\030\310\353\322\326So\210\312\302\002u\206"
 411      D443 6F18 
 411      C8EB D2D6 
 411      536F 88CA 
 411      C202 7586 
 412 07b7 621E FAC6 		.ascii	"b\036\372\306\333*JX\257\265\364\324\031\204\365Z\320Sg\020\326"
 412      DB2A 4A58 
 412      AFB5 F4D4 
 412      1984 F55A 
 412      D053 6710 
 413 07cc 937B BC75 		.ascii	"\223{\274u"
 414 07d0 06E9 2A0F 		.string	"\006\351*\017\352\013\322U\036\324\027\244\253<\250/\200\271v\312%\327N\326\235k\347\177\
 414      EA0B D255 
 414      1ED4 17A4 
 414      AB3C A82F 
 414      80B9 76CA 
 415 085e EA1A 594E 		.string	"\352\032YN4\005\240\307x(\213B\315"
 415      3405 A0C7 
 415      7828 8B42 
 415      CD00 
 416 086c E871 1E6A 		.string	"\350q\036jB\241\346"
 416      42A1 E600 
 417 0874 F404 0FB5 		.string	"\364\004\017\265\243P\013"
 417      A350 0B00 
 418 087c 7A52 16A9 		.string	"zR\026\251k"
 418      6B00 
 419 0882 E829 1EBA 		.string	"\350)\036\272\227B-\001h!\017\345S\250\025"
 419      9742 2D01 
GAS LISTING /tmp/cccJIYS7.s 			page 26


 419      6821 0FE5 
 419      53A8 1500 
 420 0892 E942 A04A 		.string	"\351B\240J)\325\032\240\312\005\3121\372\265\001\260\n\001[\316\260\266"
 420      29D5 1AA0 
 420      CA05 CA31 
 420      FAB5 01B0 
 420      0A01 5BCE 
 421 08a9 B648 C0D6 		.string	"\266H\300\3262\354Z"
 421      32EC 5A00 
 422 08b1 5B2C 609B 		.string	"[,`\233\030v\035\200-\021\260\347\031v=\200-\025\260\3370\254\035\200-\023\260\343\fk\017
 422      1876 1D80 
 422      2D11 B0E7 
 422      1976 3D80 
 422      2D15 B0DF 
 423 08d8 6C85 805D 		.string	"l\205\200]dX\007"
 423      6458 0700 
 424 08e0 6BCE 5371 		.string	"k\316SqFu\004(E6\032\336"
 424      4675 0428 
 424      4536 1ADE 
 424      00
 425 08ed 404D 6450 		.string	"@MdP'"
 425      2700 
 426 08f3 CAE4 2176 		.string	"\312\344!v\211\324\331\373\325lk\nu\001\240*\301\201!J\335\bP\373\005*\225R]\001\252\023\
 426      89D4 D9FB 
 426      D56C 6B0A 
 426      7501 A02A 
 426      C181 214A 
 427 093a B55B A002 		.string	"\265[\240\002\224\352\001P/\b\324YfX6\200\275(\307r"
 427      94EA 0150 
 427      2F08 D459 
 427      6658 3680 
 427      BD28 C772 
 428 094f 6CAF 8039 		.string	"l\257\2009\346\312\236"
 428      E6CA 9E00 
 429 0957 B64F C02A 		.string	"\266O\300*\031\326\013\300^\022\260\r\f\353\355\275/\277\317\250>"
 429      19D6 0BC0 
 429      5E12 B00D 
 429      0CEB EDBD 
 429      2FBF CFA8 
 430 096d 9523 EB96 		.string	"\225#\353\226}\001\250\247\f\352\007@\215xH\243P\177"
 430      7D01 A8A7 
 430      0CEA 0740 
 430      8D78 48A3 
 430      507F 00
 431 0980 6ACC 4377 		.string	"j\314CwSh"
 431      5368 00
 432 0987 00        		.string	""
 433 0988 B594 AD36 		.string	"\265\224\2556n\005\240v\262\236|\033"
 433      6E05 A076 
 433      B29E 7C1B 
 433      00
 434 0995 7590 49BA 		.string	"u\220I\272\035\200:\362\320:\026\250;"
 434      1D80 3AF2 
 434      D03A 16A8 
 434      3B00 
 435 09a3 AA9B 4CBF 		.string	"\252\233L\277;\001\2507\0175\244\320@"
 435      3B01 A837 
GAS LISTING /tmp/cccJIYS7.s 			page 27


 435      0F35 A4D0 
 435      4000 
 436 09b1 EA2B 8306 		.string	"\352+\203\006\001P\177\036\272\236B\203\001h"
 436      0150 7F1E 
 436      BA9E 4283 
 436      0168 00
 437 09c0 0FB1 9F1A 		.string	"\017\261\237\032\017\001\240[y\250;\205\206\002\320\035\262\001m\030"
 437      0F01 A05B 
 437      79A8 3B85 
 437      8602 D01D 
 437      B201 6D18 
 438 09d5 DD23 9B7D 		.string	"\335#\233}\206\003\320X\036b\253\326\021"
 438      8603 D058 
 438      1E62 ABD6 
 438      1100 
 439 09e3 942F EB50 		.string	"\224/\353Pw\001P\214\207\330Rw$"
 439      7701 508C 
 439      87D8 5277 
 439      2400 
 440 09f1 AD16 0697 		.string	"\255\026\006\227q\224\032\005Pk\220L\301\321"
 440      7194 1A05 
 440      506B 904C 
 440      C1D1 00
 441 0a00 B556 4AFD 		.string	"\265VJ\375\002\240*\245\324\335"
 441      02A0 2AA5 
 441      D4DD 00
 442 0a0b B54E 4A8D 		.string	"\265NJ\215\001\250MR\352\036\200zVJ\215\005\250\003\002\265\230\365\373q"
 442      01A8 4D52 
 442      EA1E 807A 
 442      564A 8D05 
 442      A803 02B5 
 443 0a24 F68A 8065 		.string	"\366\212\200ePj<@\035\024(\366;\314\t"
 443      506A 3C40 
 443      1D14 28F6 
 443      3BCC 0900 
 444 0a34 7548 A02A 		.string	"uH\240*\230\212\271"
 444      988A B900 
 445 0a3c F6A6 80B1 		.string	"\366\246\200\261\013\361\211"
 445      0BF1 8900 
 446 0a44 354C 064D 		.string	"5L\006M\002\240\341\322\211x2@\215\340\251>\024\232\002@w\361\3204\nM\005\240\221<\324\22
 446      02A0 E1D2 
 446      8978 3240 
 446      8DE0 A93E 
 446      149A 0240 
 447 0a67 6814 0FB1 		.string	"h\024\017\261/\n\246\003\320t\036r\\q\335\013P\367J\251\373"
 447      2F0A A603 
 447      D074 1E72 
 447      5C71 DD0B 
 447      50F7 4AA9 
 448 0a7d EA3E 9E1A 		.string	"\352>\236\032N\241\373\001\350~\036\232E\241\007"
 448      4EA1 FB01 
 448      E87E 1E9A 
 448      45A1 0700 
 449 0a8d E801 1E1A 		.string	"\350\001\036\032M\241\007\001\350AY\256\207\001\250@\226~\017\001\320\\\036\232L!\r\200\n
 449      4DA1 0701 
 449      E841 59AE 
 449      8701 A840 
GAS LISTING /tmp/cccJIYS7.s 			page 28


 449      967E 0F01 
 450 0ac4 A93C F410 		.string	"\251<\364\020\205\036\366\276D\375\0353j\026@\311o4\316\006(\371\215\306|\200\222\336h\23
 450      851E F6BE 
 450      44FD 1D33 
 450      6A16 40C9 
 450      6F34 CE06 
 451 0af1 24BF D138 		.string	"$\277\3218\027\240\246Is\251\020\240\206\360\024\373]@\021"
 451      17A0 A649 
 451      73A9 10A0 
 451      86F0 14FB 
 451      5D40 1100 
 452 0b05 0D92 F96F 		.string	"\r\222\371o\036"
 452      1E00 
 453 0b0b 95F0 10BB 		.string	"\225\360\020\273\364\236\017@\362\037\023D\001j\214L\277b"
 453      F49E 0F40 
 453      F21F 1344 
 453      016A 8C4C 
 453      BF62 00
 454 0b1e 5AC0 434C 		.string	"Z\300CLR\f\200\204\273\273\243(T\002@w\363P\032\205J\001\350\367B\007f}q\001@M\221\365\37
 454      520C 8084 
 454      BBBB A328 
 454      5402 4077 
 454      F350 1A85 
 455 0b6c 6AAB 54D6 		.ascii	"j\253T\326B\037KN\307\342Q\207nKm\023\270n\024+\207\260\355\322"
 455      421F 4B4E 
 455      C7E2 5187 
 455      6E4B 6D13 
 455      B86E 142B 
 456 0b84 2F65 2A20 		.ascii	"/e* \354\227\0026\206b\213 l\207\200\r\242\330b\b{\224\247\330"
 456      EC97 0236 
 456      8662 8B20 
 456      6C87 800D 
 456      A2D8 6208 
 457 0b9c 2DB7 2510 		.ascii	"-\267%\020U&\353\314K!\352C\3717@\313|HkL\251\345~\244\261,^"
 457      5526 EBCC 
 457      4B21 EA43 
 457      F937 40CB 
 457      7C48 6B4C 
 458 0bb7 E143 18BB 		.ascii	"\341C\030\273 \\\351G\330S\024{\332\2070\266~Z\345G\230c\006"
 458      205C E947 
 458      D853 147B 
 458      DA87 30B6 
 458      7E5A E547 
 459 0bce 5BED 431A 		.ascii	"[\355C\032\373Nb\215\037iL\330Z\037\302\330\025W\245\037a,\326"
 459      FB4E 628D 
 459      1F69 4CD8 
 459      5A1F C2D8 
 459      1557 A51F 
 460 0be5 EB7C 08CB 		.ascii	"\353|\b\313\244\324z?\302\330\330\363\214\017al~\331P\317\240"
 460      A4D4 7A3F 
 460      C2D8 D8F3 
 460      8C0F 616C 
 460      7ED9 50CF 
 461 0bfa 6DF4 218D 		.ascii	"m\364!\215};\266\311\217\2648\223\266\331\20746dm\361#\215\315"
 461      7D3B B6C9 
 461      8FB4 3893 
 461      B6D9 8734 
GAS LISTING /tmp/cccJIYS7.s 			page 29


 461      3664 6DF1 
 462 0c11 835B 7D08 		.ascii	"\203[}\bcK\226g\375\bcc\3776\037\302\272Pj;D\271\377\244\302"
 462      634B 9667 
 462      FD08 6363 
 462      FF36 1FC2 
 462      BA50 6A3B 
 463 0c2a DCD0 BA08 		.ascii	"\334\320\272\b\374G\002\r\275\200\214\233\r\310\307\337\fhhe"
 463      FC47 020D 
 463      BD80 8C9B 
 463      0DC8 C7DF 
 463      0C68 6865 
 464 0c3e 50BE 37F6 		.ascii	"P\2767\366\351\240\373\356]k\023\201\214Z\305(k\307V\365\321"
 464      E9A0 FBEE 
 464      5D6B 1381 
 464      8C5A C528 
 464      6BC7 56F5 
 465 0c53 4D1F 355B 		.ascii	"M\0375[\242W\353\326n\226\312\240\347\275\nk\202\302^\205\234"
 465      A257 EBD6 
 465      6E96 CAA0 
 465      E7BD 0A6B 
 465      82C2 5E85 
 466 0c68 7445 D8AB 		.ascii	"tE\330\253PC\177SB+\252\312w\366_\204\230\273?*\365?\327X\273"
 466      5043 7F53 
 466      422B AACA 
 466      77F6 5F84 
 466      98BB 3F2A 
 467 0c81 3F30 AE2A 		.ascii	"?0\256*\313\203\006\261:H7\177d\331b\203\266\f\205n\316X\304"
 467      CB83 06B1 
 467      3A48 377F 
 467      64D9 6283 
 467      B60C 856E 
 468 0c98 EDFD 3020 		.ascii	"\355\3750 \307C\303\266p\273"
 468      C743 C3B6 
 468      70BB 
 469 0ca2 33C8 B663 		.string	"3\310\266cl\2304J\006\265)\310\366\034\033\307z\202<\320B\373\324\302$\227\033\273Hd.\337
 469      6C98 344A 
 469      06B5 29C8 
 469      F61C 1BC7 
 469      7A82 3CD0 
 470 0da3 EA5E E922 		.string	"\352^\351\"\367$'\327\255\306\331:k\324\310k(\355\262K\212\243\331\005\3713\262\265\322hv
 470      F724 27D7 
 470      ADC6 D93A 
 470      6BD4 C86B 
 470      28ED B24B 
 471 0e7f AB13 98A9 		.ascii	"\253\023\230\251\305\032/\210N\214\024\026\027\031\347\212\007"
 471      C51A 2F88 
 471      4E8C 1416 
 471      1719 E78A 
 471      07
 472 0e90 8407 186A 		.ascii	"\204\007\030j\032\212g\026Gb\271\221\342\036\363p\233=z\206\242"
 472      1A8A 6716 
 472      4762 B991 
 472      E21E F370 
 472      9B3D 7A86 
 473 0ea5 33F1 E72D 		.ascii	"3\361\347-\360\271aE\005E\321\211\363\264\274\210\365QN&w2\224"
 473      F0B9 6145 
 473      0545 D189 
GAS LISTING /tmp/cccJIYS7.s 			page 30


 473      F3B4 BC88 
 473      F551 4E26 
 474 0ebc 671C A658 		.ascii	"g\034\246X0\226Q\234\232\247\315\035]\230\037\353\350\352\313"
 474      3096 519C 
 474      9AA7 CD1D 
 474      5D98 1FEB 
 474      E8EA CB
 475 0ecf 9258 7E41 		.ascii	"\222X~A\366\314H\201V\206=\3246\034\236Q\222_\020\313/\f\343"
 475      F6CC 4881 
 475      5686 3DD4 
 475      361C 9E51 
 475      925F 10CB 
 476 0ee6 3A61 F374 		.ascii	":a\363t8\257,\257 R\234^:K\013[VgFg\315\300~\"\357\032\317\320"
 476      38AF 2CAF 
 476      2052 9C5E 
 476      3A4B 0B5B 
 476      5667 4667 
 477 0f02 CA22 51EC 		.ascii	"\312\"Q\354-\373\323\262\222R\354L\362.c\376|\0066t\0347\267"
 477      2DFB D3B2 
 477      9252 EC4C 
 477      F22E 63FE 
 477      7C06 3674 
 478 0f19 5EB0 8C87 		.ascii	"^\260\214\207\265\222\202X\030\033]\234F$\316-\316\324\n\026"
 478      B592 8258 
 478      181B 5D9C 
 478      4624 CE2D 
 478      CED4 0A16 
 479 0f2d 6865 C5E1 		.ascii	"he\305\341\374\302\202\374\302H0\214O\231\261\356\331/\034\013"
 479      FCC2 82FC 
 479      C248 308C 
 479      4F99 B1EE 
 479      D92F 1C0B 
 480 0f41 E6CD D6A2 		.ascii	"\346\315\326\242\377\005.8\"\021"
 480      FF05 2E38 
 480      2211 
 481               		.text
 482               		.section	.gnu.lto_.symtab.1f400114225eb232,"",@progbits
 483 0000 7772 5265 		.string	"wrReg"
 483      6700 
 484 0006 00        		.string	""
 485 0007 00        		.string	""
 486 0008 00        		.string	""
 487 0009 00        		.string	""
 488 000a 00        		.string	""
 489 000b 00        		.string	""
 490 000c 00        		.string	""
 491 000d 00        		.string	""
 492 000e 00        		.string	""
 493 000f 00        		.string	""
 494 0010 00        		.string	""
 495 0011 EE00      		.string	"\356"
 496 0013 00        		.string	""
 497 0014 00        		.string	""
 498 0015 7264 5265 		.string	"rdReg"
 498      6700 
 499 001b 00        		.string	""
 500 001c 00        		.string	""
GAS LISTING /tmp/cccJIYS7.s 			page 31


 501 001d 00        		.string	""
 502 001e 00        		.string	""
 503 001f 00        		.string	""
 504 0020 00        		.string	""
 505 0021 00        		.string	""
 506 0022 00        		.string	""
 507 0023 00        		.string	""
 508 0024 00        		.string	""
 509 0025 00        		.string	""
 510 0026 0101 00   		.string	"\001\001"
 511 0029 00        		.string	""
 512 002a 7365 7443 		.string	"setColorSpace"
 512      6F6C 6F72 
 512      5370 6163 
 512      6500 
 513 0038 00        		.string	""
 514 0039 00        		.string	""
 515 003a 00        		.string	""
 516 003b 00        		.string	""
 517 003c 00        		.string	""
 518 003d 00        		.string	""
 519 003e 00        		.string	""
 520 003f 00        		.string	""
 521 0040 00        		.string	""
 522 0041 00        		.string	""
 523 0042 00        		.string	""
 524 0043 0901 00   		.string	"\t\001"
 525 0046 00        		.string	""
 526 0047 7365 7452 		.string	"setRes"
 526      6573 00
 527 004e 00        		.string	""
 528 004f 00        		.string	""
 529 0050 00        		.string	""
 530 0051 00        		.string	""
 531 0052 00        		.string	""
 532 0053 00        		.string	""
 533 0054 00        		.string	""
 534 0055 00        		.string	""
 535 0056 00        		.string	""
 536 0057 00        		.string	""
 537 0058 00        		.string	""
 538 0059 1001 00   		.string	"\020\001"
 539 005c 00        		.string	""
 540 005d 6361 6D49 		.string	"camInit"
 540      6E69 7400 
 541 0065 00        		.string	""
 542 0066 00        		.string	""
 543 0067 00        		.string	""
 544 0068 00        		.string	""
 545 0069 00        		.string	""
 546 006a 00        		.string	""
 547 006b 00        		.string	""
 548 006c 00        		.string	""
 549 006d 00        		.string	""
 550 006e 00        		.string	""
 551 006f 00        		.string	""
 552 0070 1701 00   		.string	"\027\001"
GAS LISTING /tmp/cccJIYS7.s 			page 32


 553 0073 00        		.string	""
 554               		.text
 555               		.section	.gnu.lto_.opts,"",@progbits
 556 0000 272D 6D6D 		.string	"'-mmcu=atmega328p' '-g' '-O2' '-flto' '-fpack-struct' '-funsigned-char'"
 556      6375 3D61 
 556      746D 6567 
 556      6133 3238 
 556      7027 2027 
 557               		.text
 558               		.section	.text.unlikely,"ax",@progbits
 559               		.stabs	"errorLed:f(0,47)",36,0,186,errorLed
 560               		.type	errorLed, @function
 561               	errorLed:
 562               		.stabd	46,0,0
   1:ov7670.c      **** #define F_CPU 16000000UL
   2:ov7670.c      **** #include <stdint.h>
   3:ov7670.c      **** #include <avr/io.h>
   4:ov7670.c      **** #include <util/twi.h>
   5:ov7670.c      **** #include <util/delay.h>
   6:ov7670.c      **** #include <avr/pgmspace.h>
   7:ov7670.c      **** #include "ov7670.h"
   8:ov7670.c      **** static const struct regval_list vga_ov7670[] = {
   9:ov7670.c      **** 	{REG_HREF,0xF6},	// was B6  
  10:ov7670.c      **** 	{0x17,0x13},		// HSTART
  11:ov7670.c      **** 	{0x18,0x01},		// HSTOP
  12:ov7670.c      **** 	{0x19,0x02},		// VSTART
  13:ov7670.c      **** 	{0x1a,0x7a},		// VSTOP
  14:ov7670.c      **** 	{REG_VREF,0x0a},	// VREF
  15:ov7670.c      **** 	{0xff, 0xff},		/* END MARKER */
  16:ov7670.c      **** };
  17:ov7670.c      **** static const struct regval_list qvga_ov7670[] = {
  18:ov7670.c      **** 	{REG_COM14, 0x19},
  19:ov7670.c      **** 	{0x72, 0x11},
  20:ov7670.c      **** 	{0x73, 0xf1},
  21:ov7670.c      **** 	{REG_HSTART,0x16},
  22:ov7670.c      **** 	{REG_HSTOP,0x04},
  23:ov7670.c      **** 	{REG_HREF,0x24},
  24:ov7670.c      **** 	{REG_VSTART,0x02},
  25:ov7670.c      **** 	{REG_VSTOP,0x7a},
  26:ov7670.c      **** 	{REG_VREF,0x0a},
  27:ov7670.c      **** 	{0xff, 0xff},	/* END MARKER */
  28:ov7670.c      **** };
  29:ov7670.c      **** static const struct regval_list qqvga_ov7670[] = {
  30:ov7670.c      **** 	{REG_COM14, 0x1a},	// divide by 4
  31:ov7670.c      **** 	{0x72, 0x22},		// downsample by 4
  32:ov7670.c      **** 	{0x73, 0xf2},		// divide by 4
  33:ov7670.c      **** 	{REG_HSTART,0x16},
  34:ov7670.c      **** 	{REG_HSTOP,0x04},
  35:ov7670.c      **** 	{REG_HREF,0xa4},		   
  36:ov7670.c      **** 	{REG_VSTART,0x02},
  37:ov7670.c      **** 	{REG_VSTOP,0x7a},
  38:ov7670.c      **** 	{REG_VREF,0x0a},
  39:ov7670.c      **** 	{0xff, 0xff},	/* END MARKER */
  40:ov7670.c      **** };
  41:ov7670.c      **** static const struct regval_list yuv422_ov7670[] = {
  42:ov7670.c      **** 	{REG_COM7, 0x0},	/* Selects YUV mode */
  43:ov7670.c      **** 	{REG_RGB444, 0},	/* No RGB444 please */
GAS LISTING /tmp/cccJIYS7.s 			page 33


  44:ov7670.c      **** 	{REG_COM1, 0},
  45:ov7670.c      **** 	{REG_COM15, COM15_R00FF},
  46:ov7670.c      **** 	{REG_COM9, 0x6A},	/* 128x gain ceiling; 0x8 is reserved bit */
  47:ov7670.c      **** 	{0x4f, 0x80},		/* "matrix coefficient 1" */
  48:ov7670.c      **** 	{0x50, 0x80},		/* "matrix coefficient 2" */
  49:ov7670.c      **** 	{0x51, 0},		/* vb */
  50:ov7670.c      **** 	{0x52, 0x22},		/* "matrix coefficient 4" */
  51:ov7670.c      **** 	{0x53, 0x5e},		/* "matrix coefficient 5" */
  52:ov7670.c      **** 	{0x54, 0x80},		/* "matrix coefficient 6" */
  53:ov7670.c      **** 	{REG_COM13,/*COM13_GAMMA|*/COM13_UVSAT},
  54:ov7670.c      **** 	{0xff, 0xff},		/* END MARKER */
  55:ov7670.c      **** };
  56:ov7670.c      **** static const struct regval_list rgb565_ov7670[] = {
  57:ov7670.c      **** 	{REG_COM7, COM7_RGB}, /* Selects RGB mode */
  58:ov7670.c      **** 	{REG_RGB444, 0},	  /* No RGB444 please */
  59:ov7670.c      **** 	{REG_COM1, 0x0},
  60:ov7670.c      **** 	{REG_COM15, COM15_RGB565|COM15_R00FF},
  61:ov7670.c      **** 	{REG_COM9, 0x6A},	 /* 128x gain ceiling; 0x8 is reserved bit */
  62:ov7670.c      **** 	{0x4f, 0xb3},		 /* "matrix coefficient 1" */
  63:ov7670.c      **** 	{0x50, 0xb3},		 /* "matrix coefficient 2" */
  64:ov7670.c      **** 	{0x51, 0},		 /* vb */
  65:ov7670.c      **** 	{0x52, 0x3d},		 /* "matrix coefficient 4" */
  66:ov7670.c      **** 	{0x53, 0xa7},		 /* "matrix coefficient 5" */
  67:ov7670.c      **** 	{0x54, 0xe4},		 /* "matrix coefficient 6" */
  68:ov7670.c      **** 	{REG_COM13, /*COM13_GAMMA|*/COM13_UVSAT},
  69:ov7670.c      **** 	{0xff, 0xff},	/* END MARKER */
  70:ov7670.c      **** };
  71:ov7670.c      **** static const struct regval_list bayerRGB_ov7670[] = {
  72:ov7670.c      **** 	{REG_COM7, COM7_BAYER},
  73:ov7670.c      **** 	{REG_COM13, 0x08}, /* No gamma, magic rsvd bit */
  74:ov7670.c      **** 	{REG_COM16, 0x3d}, /* Edge enhancement, denoise */
  75:ov7670.c      **** 	{REG_REG76, 0xe1}, /* Pix correction, magic rsvd */
  76:ov7670.c      **** 	{0xff, 0xff},	/* END MARKER */
  77:ov7670.c      **** };
  78:ov7670.c      **** static const struct regval_list ov7670_default_regs[] = {//from the linux driver
  79:ov7670.c      **** 	{REG_COM7, COM7_RESET},
  80:ov7670.c      **** 	{REG_TSLB,  0x04},	/* OV */
  81:ov7670.c      **** 	{REG_COM7, 0},	/* VGA */
  82:ov7670.c      **** 	/*
  83:ov7670.c      **** 	 * Set the hardware window.  These values from OV don't entirely
  84:ov7670.c      **** 	 * make sense - hstop is less than hstart.  But they work...
  85:ov7670.c      **** 	 */
  86:ov7670.c      **** 	{REG_HSTART, 0x13},	{REG_HSTOP, 0x01},
  87:ov7670.c      **** 	{REG_HREF, 0xb6},	{REG_VSTART, 0x02},
  88:ov7670.c      **** 	{REG_VSTOP, 0x7a},	{REG_VREF, 0x0a},
  89:ov7670.c      **** 
  90:ov7670.c      **** 	{REG_COM3, 0},	{REG_COM14, 0},
  91:ov7670.c      **** 	/* Mystery scaling numbers */
  92:ov7670.c      **** 	{0x70, 0x3a},		{0x71, 0x35},
  93:ov7670.c      **** 	{0x72, 0x11},		{0x73, 0xf0},
  94:ov7670.c      **** 	{0xa2,/* 0x02 changed to 1*/1},{REG_COM10, COM10_VS_NEG},
  95:ov7670.c      **** 	/* Gamma curve values */
  96:ov7670.c      **** 	{0x7a, 0x20},		{0x7b, 0x10},
  97:ov7670.c      **** 	{0x7c, 0x1e},		{0x7d, 0x35},
  98:ov7670.c      **** 	{0x7e, 0x5a},		{0x7f, 0x69},
  99:ov7670.c      **** 	{0x80, 0x76},		{0x81, 0x80},
 100:ov7670.c      **** 	{0x82, 0x88},		{0x83, 0x8f},
GAS LISTING /tmp/cccJIYS7.s 			page 34


 101:ov7670.c      **** 	{0x84, 0x96},		{0x85, 0xa3},
 102:ov7670.c      **** 	{0x86, 0xaf},		{0x87, 0xc4},
 103:ov7670.c      **** 	{0x88, 0xd7},		{0x89, 0xe8},
 104:ov7670.c      **** 	/* AGC and AEC parameters.  Note we start by disabling those features,
 105:ov7670.c      **** 	   then turn them only after tweaking the values. */
 106:ov7670.c      **** 	{REG_COM8, COM8_FASTAEC | COM8_AECSTEP},
 107:ov7670.c      **** 	{REG_GAIN, 0},	{REG_AECH, 0},
 108:ov7670.c      **** 	{REG_COM4, 0x40}, /* magic reserved bit */
 109:ov7670.c      **** 	{REG_COM9, 0x18}, /* 4x gain + magic rsvd bit */
 110:ov7670.c      **** 	{REG_BD50MAX, 0x05},	{REG_BD60MAX, 0x07},
 111:ov7670.c      **** 	{REG_AEW, 0x95},	{REG_AEB, 0x33},
 112:ov7670.c      **** 	{REG_VPT, 0xe3},	{REG_HAECC1, 0x78},
 113:ov7670.c      **** 	{REG_HAECC2, 0x68},	{0xa1, 0x03}, /* magic */
 114:ov7670.c      **** 	{REG_HAECC3, 0xd8},	{REG_HAECC4, 0xd8},
 115:ov7670.c      **** 	{REG_HAECC5, 0xf0},	{REG_HAECC6, 0x90},
 116:ov7670.c      **** 	{REG_HAECC7, 0x94},
 117:ov7670.c      **** 	{REG_COM8, COM8_FASTAEC|COM8_AECSTEP|COM8_AGC|COM8_AEC},
 118:ov7670.c      **** 	{0x30,0},{0x31,0},//disable some delays
 119:ov7670.c      **** 	/* Almost all of these are magic "reserved" values.  */
 120:ov7670.c      **** 	{REG_COM5, 0x61},	{REG_COM6, 0x4b},
 121:ov7670.c      **** 	{0x16, 0x02},		{REG_MVFP, 0x07},
 122:ov7670.c      **** 	{0x21, 0x02},		{0x22, 0x91},
 123:ov7670.c      **** 	{0x29, 0x07},		{0x33, 0x0b},
 124:ov7670.c      **** 	{0x35, 0x0b},		{0x37, 0x1d},
 125:ov7670.c      **** 	{0x38, 0x71},		{0x39, 0x2a},
 126:ov7670.c      **** 	{REG_COM12, 0x78},	{0x4d, 0x40},
 127:ov7670.c      **** 	{0x4e, 0x20},		{REG_GFIX, 0},
 128:ov7670.c      **** 	/*{0x6b, 0x4a},*/		{0x74,0x10},
 129:ov7670.c      **** 	{0x8d, 0x4f},		{0x8e, 0},
 130:ov7670.c      **** 	{0x8f, 0},		{0x90, 0},
 131:ov7670.c      **** 	{0x91, 0},		{0x96, 0},
 132:ov7670.c      **** 	{0x9a, 0},		{0xb0, 0x84},
 133:ov7670.c      **** 	{0xb1, 0x0c},		{0xb2, 0x0e},
 134:ov7670.c      **** 	{0xb3, 0x82},		{0xb8, 0x0a},
 135:ov7670.c      **** 
 136:ov7670.c      **** 	/* More reserved magic, some of which tweaks white balance */
 137:ov7670.c      **** 	{0x43, 0x0a},		{0x44, 0xf0},
 138:ov7670.c      **** 	{0x45, 0x34},		{0x46, 0x58},
 139:ov7670.c      **** 	{0x47, 0x28},		{0x48, 0x3a},
 140:ov7670.c      **** 	{0x59, 0x88},		{0x5a, 0x88},
 141:ov7670.c      **** 	{0x5b, 0x44},		{0x5c, 0x67},
 142:ov7670.c      **** 	{0x5d, 0x49},		{0x5e, 0x0e},
 143:ov7670.c      **** 	{0x6c, 0x0a},		{0x6d, 0x55},
 144:ov7670.c      **** 	{0x6e, 0x11},		{0x6f, 0x9e}, /* it was 0x9F "9e for advance AWB" */
 145:ov7670.c      **** 	{0x6a, 0x40},		{REG_BLUE, 0x40},
 146:ov7670.c      **** 	{REG_RED, 0x60},
 147:ov7670.c      **** 	{REG_COM8, COM8_FASTAEC|COM8_AECSTEP|COM8_AGC|COM8_AEC|COM8_AWB},
 148:ov7670.c      **** 
 149:ov7670.c      **** 	/* Matrix coefficients */
 150:ov7670.c      **** 	{0x4f, 0x80},		{0x50, 0x80},
 151:ov7670.c      **** 	{0x51, 0},		{0x52, 0x22},
 152:ov7670.c      **** 	{0x53, 0x5e},		{0x54, 0x80},
 153:ov7670.c      **** 	{0x58, 0x9e},
 154:ov7670.c      **** 
 155:ov7670.c      **** 	{REG_COM16, COM16_AWBGAIN},	{REG_EDGE, 0},
 156:ov7670.c      **** 	{0x75, 0x05},		{REG_REG76, 0xe1},
 157:ov7670.c      **** 	{0x4c, 0},		{0x77, 0x01},
GAS LISTING /tmp/cccJIYS7.s 			page 35


 158:ov7670.c      **** 	{REG_COM13, /*0xc3*/0x48},	{0x4b, 0x09},
 159:ov7670.c      **** 	{0xc9, 0x60},		/*{REG_COM16, 0x38},*/
 160:ov7670.c      **** 	{0x56, 0x40},
 161:ov7670.c      **** 
 162:ov7670.c      **** 	{0x34, 0x11},		{REG_COM11, COM11_EXP|COM11_HZAUTO},
 163:ov7670.c      **** 	{0xa4, 0x82/*Was 0x88*/},		{0x96, 0},
 164:ov7670.c      **** 	{0x97, 0x30},		{0x98, 0x20},
 165:ov7670.c      **** 	{0x99, 0x30},		{0x9a, 0x84},
 166:ov7670.c      **** 	{0x9b, 0x29},		{0x9c, 0x03},
 167:ov7670.c      **** 	{0x9d, 0x4c},		{0x9e, 0x3f},
 168:ov7670.c      **** 	{0x78, 0x04},
 169:ov7670.c      **** 
 170:ov7670.c      **** 	/* Extra-weird stuff.  Some sort of multiplexor register */
 171:ov7670.c      **** 	{0x79, 0x01},		{0xc8, 0xf0},
 172:ov7670.c      **** 	{0x79, 0x0f},		{0xc8, 0x00},
 173:ov7670.c      **** 	{0x79, 0x10},		{0xc8, 0x7e},
 174:ov7670.c      **** 	{0x79, 0x0a},		{0xc8, 0x80},
 175:ov7670.c      **** 	{0x79, 0x0b},		{0xc8, 0x01},
 176:ov7670.c      **** 	{0x79, 0x0c},		{0xc8, 0x0f},
 177:ov7670.c      **** 	{0x79, 0x0d},		{0xc8, 0x20},
 178:ov7670.c      **** 	{0x79, 0x09},		{0xc8, 0x80},
 179:ov7670.c      **** 	{0x79, 0x02},		{0xc8, 0xc0},
 180:ov7670.c      **** 	{0x79, 0x03},		{0xc8, 0x40},
 181:ov7670.c      **** 	{0x79, 0x05},		{0xc8, 0x30},
 182:ov7670.c      **** 	{0x79, 0x26},
 183:ov7670.c      **** 
 184:ov7670.c      **** 	{0xff, 0xff},	/* END MARKER */
 185:ov7670.c      **** };
 186:ov7670.c      **** static void errorLed(void){
 563               		.stabn	68,0,186,.LM0-.LFBB1
 564               	.LM0:
 565               	.LFBB1:
 566               	/* prologue: function */
 567               	/* frame size = 0 */
 568               	/* stack size = 0 */
 569               	.L__stack_usage = 0
 187:ov7670.c      **** 	DDRB|=32;//make sure led is output
 570               		.stabn	68,0,187,.LM1-.LFBB1
 571               	.LM1:
 572 0000 259A      		sbi 0x4,5
 188:ov7670.c      **** 	while(1){//wait for reset
 189:ov7670.c      **** 		PORTB^=32;// toggle led
 573               		.stabn	68,0,189,.LM2-.LFBB1
 574               	.LM2:
 575 0002 90E2      		ldi r25,lo8(32)
 576               	.L2:
 577               		.stabn	68,0,189,.LM3-.LFBB1
 578               	.LM3:
 579 0004 85B1      		in r24,0x5
 580 0006 8927      		eor r24,r25
 581 0008 85B9      		out 0x5,r24
 582               	.LBB18:
 583               	.LBB19:
 584               		.stabs	"/usr/lib/avr/include/util/delay.h",132,0,0,.Ltext1
 585               	.Ltext1:
   1:/usr/lib/avr/include/util/delay.h **** /* Copyright (c) 2002, Marek Michalkiewicz
   2:/usr/lib/avr/include/util/delay.h ****    Copyright (c) 2004,2005,2007 Joerg Wunsch
GAS LISTING /tmp/cccJIYS7.s 			page 36


   3:/usr/lib/avr/include/util/delay.h ****    Copyright (c) 2007  Florin-Viorel Petrov
   4:/usr/lib/avr/include/util/delay.h ****    All rights reserved.
   5:/usr/lib/avr/include/util/delay.h **** 
   6:/usr/lib/avr/include/util/delay.h ****    Redistribution and use in source and binary forms, with or without
   7:/usr/lib/avr/include/util/delay.h ****    modification, are permitted provided that the following conditions are met:
   8:/usr/lib/avr/include/util/delay.h **** 
   9:/usr/lib/avr/include/util/delay.h ****    * Redistributions of source code must retain the above copyright
  10:/usr/lib/avr/include/util/delay.h ****      notice, this list of conditions and the following disclaimer.
  11:/usr/lib/avr/include/util/delay.h **** 
  12:/usr/lib/avr/include/util/delay.h ****    * Redistributions in binary form must reproduce the above copyright
  13:/usr/lib/avr/include/util/delay.h ****      notice, this list of conditions and the following disclaimer in
  14:/usr/lib/avr/include/util/delay.h ****      the documentation and/or other materials provided with the
  15:/usr/lib/avr/include/util/delay.h ****      distribution.
  16:/usr/lib/avr/include/util/delay.h **** 
  17:/usr/lib/avr/include/util/delay.h ****    * Neither the name of the copyright holders nor the names of
  18:/usr/lib/avr/include/util/delay.h ****      contributors may be used to endorse or promote products derived
  19:/usr/lib/avr/include/util/delay.h ****      from this software without specific prior written permission.
  20:/usr/lib/avr/include/util/delay.h **** 
  21:/usr/lib/avr/include/util/delay.h ****   THIS SOFTWARE IS PROVIDED BY THE COPYRIGHT HOLDERS AND CONTRIBUTORS "AS IS"
  22:/usr/lib/avr/include/util/delay.h ****   AND ANY EXPRESS OR IMPLIED WARRANTIES, INCLUDING, BUT NOT LIMITED TO, THE
  23:/usr/lib/avr/include/util/delay.h ****   IMPLIED WARRANTIES OF MERCHANTABILITY AND FITNESS FOR A PARTICULAR PURPOSE
  24:/usr/lib/avr/include/util/delay.h ****   ARE DISCLAIMED. IN NO EVENT SHALL THE COPYRIGHT OWNER OR CONTRIBUTORS BE
  25:/usr/lib/avr/include/util/delay.h ****   LIABLE FOR ANY DIRECT, INDIRECT, INCIDENTAL, SPECIAL, EXEMPLARY, OR
  26:/usr/lib/avr/include/util/delay.h ****   CONSEQUENTIAL DAMAGES (INCLUDING, BUT NOT LIMITED TO, PROCUREMENT OF
  27:/usr/lib/avr/include/util/delay.h ****   SUBSTITUTE GOODS OR SERVICES; LOSS OF USE, DATA, OR PROFITS; OR BUSINESS
  28:/usr/lib/avr/include/util/delay.h ****   INTERRUPTION) HOWEVER CAUSED AND ON ANY THEORY OF LIABILITY, WHETHER IN
  29:/usr/lib/avr/include/util/delay.h ****   CONTRACT, STRICT LIABILITY, OR TORT (INCLUDING NEGLIGENCE OR OTHERWISE)
  30:/usr/lib/avr/include/util/delay.h ****   ARISING IN ANY WAY OUT OF THE USE OF THIS SOFTWARE, EVEN IF ADVISED OF THE
  31:/usr/lib/avr/include/util/delay.h ****   POSSIBILITY OF SUCH DAMAGE. */
  32:/usr/lib/avr/include/util/delay.h **** 
  33:/usr/lib/avr/include/util/delay.h **** /* $Id$ */
  34:/usr/lib/avr/include/util/delay.h **** 
  35:/usr/lib/avr/include/util/delay.h **** #ifndef _UTIL_DELAY_H_
  36:/usr/lib/avr/include/util/delay.h **** #define _UTIL_DELAY_H_ 1
  37:/usr/lib/avr/include/util/delay.h **** 
  38:/usr/lib/avr/include/util/delay.h **** #ifndef __HAS_DELAY_CYCLES
  39:/usr/lib/avr/include/util/delay.h **** #define __HAS_DELAY_CYCLES 1
  40:/usr/lib/avr/include/util/delay.h **** #endif
  41:/usr/lib/avr/include/util/delay.h **** 
  42:/usr/lib/avr/include/util/delay.h **** #include <inttypes.h>
  43:/usr/lib/avr/include/util/delay.h **** #include <util/delay_basic.h>
  44:/usr/lib/avr/include/util/delay.h **** #include <math.h>
  45:/usr/lib/avr/include/util/delay.h **** 
  46:/usr/lib/avr/include/util/delay.h **** /** \file */
  47:/usr/lib/avr/include/util/delay.h **** /** \defgroup util_delay <util/delay.h>: Convenience functions for busy-wait delay loops
  48:/usr/lib/avr/include/util/delay.h ****     \code
  49:/usr/lib/avr/include/util/delay.h ****     #define F_CPU 1000000UL  // 1 MHz
  50:/usr/lib/avr/include/util/delay.h ****     //#define F_CPU 14.7456E6
  51:/usr/lib/avr/include/util/delay.h ****     #include <util/delay.h>
  52:/usr/lib/avr/include/util/delay.h ****     \endcode
  53:/usr/lib/avr/include/util/delay.h **** 
  54:/usr/lib/avr/include/util/delay.h ****     \note As an alternative method, it is possible to pass the
  55:/usr/lib/avr/include/util/delay.h ****     F_CPU macro down to the compiler from the Makefile.
  56:/usr/lib/avr/include/util/delay.h ****     Obviously, in that case, no \c \#define statement should be
  57:/usr/lib/avr/include/util/delay.h ****     used.
  58:/usr/lib/avr/include/util/delay.h **** 
  59:/usr/lib/avr/include/util/delay.h ****     The functions in this header file are wrappers around the basic
GAS LISTING /tmp/cccJIYS7.s 			page 37


  60:/usr/lib/avr/include/util/delay.h ****     busy-wait functions from <util/delay_basic.h>.  They are meant as
  61:/usr/lib/avr/include/util/delay.h ****     convenience functions where actual time values can be specified
  62:/usr/lib/avr/include/util/delay.h ****     rather than a number of cycles to wait for.  The idea behind is
  63:/usr/lib/avr/include/util/delay.h ****     that compile-time constant expressions will be eliminated by
  64:/usr/lib/avr/include/util/delay.h ****     compiler optimization so floating-point expressions can be used
  65:/usr/lib/avr/include/util/delay.h ****     to calculate the number of delay cycles needed based on the CPU
  66:/usr/lib/avr/include/util/delay.h ****     frequency passed by the macro F_CPU.
  67:/usr/lib/avr/include/util/delay.h **** 
  68:/usr/lib/avr/include/util/delay.h ****     \note In order for these functions to work as intended, compiler
  69:/usr/lib/avr/include/util/delay.h ****     optimizations <em>must</em> be enabled, and the delay time
  70:/usr/lib/avr/include/util/delay.h ****     <em>must</em> be an expression that is a known constant at
  71:/usr/lib/avr/include/util/delay.h ****     compile-time.  If these requirements are not met, the resulting
  72:/usr/lib/avr/include/util/delay.h ****     delay will be much longer (and basically unpredictable), and
  73:/usr/lib/avr/include/util/delay.h ****     applications that otherwise do not use floating-point calculations
  74:/usr/lib/avr/include/util/delay.h ****     will experience severe code bloat by the floating-point library
  75:/usr/lib/avr/include/util/delay.h ****     routines linked into the application.
  76:/usr/lib/avr/include/util/delay.h **** 
  77:/usr/lib/avr/include/util/delay.h ****     The functions available allow the specification of microsecond, and
  78:/usr/lib/avr/include/util/delay.h ****     millisecond delays directly, using the application-supplied macro
  79:/usr/lib/avr/include/util/delay.h ****     F_CPU as the CPU clock frequency (in Hertz).
  80:/usr/lib/avr/include/util/delay.h **** 
  81:/usr/lib/avr/include/util/delay.h **** */
  82:/usr/lib/avr/include/util/delay.h **** 
  83:/usr/lib/avr/include/util/delay.h **** #if !defined(__DOXYGEN__)
  84:/usr/lib/avr/include/util/delay.h **** static inline void _delay_us(double __us) __attribute__((always_inline));
  85:/usr/lib/avr/include/util/delay.h **** static inline void _delay_ms(double __ms) __attribute__((always_inline));
  86:/usr/lib/avr/include/util/delay.h **** #endif
  87:/usr/lib/avr/include/util/delay.h **** 
  88:/usr/lib/avr/include/util/delay.h **** #ifndef F_CPU
  89:/usr/lib/avr/include/util/delay.h **** /* prevent compiler error by supplying a default */
  90:/usr/lib/avr/include/util/delay.h **** # warning "F_CPU not defined for <util/delay.h>"
  91:/usr/lib/avr/include/util/delay.h **** # define F_CPU 1000000UL
  92:/usr/lib/avr/include/util/delay.h **** #endif
  93:/usr/lib/avr/include/util/delay.h **** 
  94:/usr/lib/avr/include/util/delay.h **** #ifndef __OPTIMIZE__
  95:/usr/lib/avr/include/util/delay.h **** # warning "Compiler optimizations disabled; functions from <util/delay.h> won't work as designed"
  96:/usr/lib/avr/include/util/delay.h **** #endif
  97:/usr/lib/avr/include/util/delay.h **** 
  98:/usr/lib/avr/include/util/delay.h **** #if __HAS_DELAY_CYCLES && defined(__OPTIMIZE__) && \
  99:/usr/lib/avr/include/util/delay.h ****   !defined(__DELAY_BACKWARD_COMPATIBLE__) &&	   \
 100:/usr/lib/avr/include/util/delay.h ****   __STDC_HOSTED__
 101:/usr/lib/avr/include/util/delay.h **** #  include <math.h>
 102:/usr/lib/avr/include/util/delay.h **** #endif
 103:/usr/lib/avr/include/util/delay.h **** 
 104:/usr/lib/avr/include/util/delay.h **** /**
 105:/usr/lib/avr/include/util/delay.h ****    \ingroup util_delay
 106:/usr/lib/avr/include/util/delay.h **** 
 107:/usr/lib/avr/include/util/delay.h ****    Perform a delay of \c __ms milliseconds, using _delay_loop_2().
 108:/usr/lib/avr/include/util/delay.h **** 
 109:/usr/lib/avr/include/util/delay.h ****    The macro F_CPU is supposed to be defined to a
 110:/usr/lib/avr/include/util/delay.h ****    constant defining the CPU clock frequency (in Hertz).
 111:/usr/lib/avr/include/util/delay.h **** 
 112:/usr/lib/avr/include/util/delay.h ****    The maximal possible delay is 262.14 ms / F_CPU in MHz.
 113:/usr/lib/avr/include/util/delay.h **** 
 114:/usr/lib/avr/include/util/delay.h ****    When the user request delay which exceed the maximum possible one,
 115:/usr/lib/avr/include/util/delay.h ****    _delay_ms() provides a decreased resolution functionality. In this
 116:/usr/lib/avr/include/util/delay.h ****    mode _delay_ms() will work with a resolution of 1/10 ms, providing
GAS LISTING /tmp/cccJIYS7.s 			page 38


 117:/usr/lib/avr/include/util/delay.h ****    delays up to 6.5535 seconds (independent from CPU frequency).  The
 118:/usr/lib/avr/include/util/delay.h ****    user will not be informed about decreased resolution.
 119:/usr/lib/avr/include/util/delay.h **** 
 120:/usr/lib/avr/include/util/delay.h ****    If the avr-gcc toolchain has __builtin_avr_delay_cycles(unsigned long)
 121:/usr/lib/avr/include/util/delay.h ****    support, maximal possible delay is 4294967.295 ms/ F_CPU in MHz. For
 122:/usr/lib/avr/include/util/delay.h ****    values greater than the maximal possible delay, overflows results in
 123:/usr/lib/avr/include/util/delay.h ****    no delay i.e., 0ms.
 124:/usr/lib/avr/include/util/delay.h **** 
 125:/usr/lib/avr/include/util/delay.h ****    Conversion of __us into clock cycles may not always result in integer.
 126:/usr/lib/avr/include/util/delay.h ****    By default, the clock cycles rounded up to next integer. This ensures that
 127:/usr/lib/avr/include/util/delay.h ****    the user gets atleast __us microseconds of delay.
 128:/usr/lib/avr/include/util/delay.h **** 
 129:/usr/lib/avr/include/util/delay.h ****    Alternatively, user can define __DELAY_ROUND_DOWN__ and __DELAY_ROUND_CLOSEST__
 130:/usr/lib/avr/include/util/delay.h ****    to round down and round to closest integer.
 131:/usr/lib/avr/include/util/delay.h **** 
 132:/usr/lib/avr/include/util/delay.h ****    Note: The new implementation of _delay_ms(double __ms) with 
 133:/usr/lib/avr/include/util/delay.h ****     __builtin_avr_delay_cycles(unsigned long) support is not backward compatible. 
 134:/usr/lib/avr/include/util/delay.h ****    User can define __DELAY_BACKWARD_COMPATIBLE__ to get a backward compatible delay.
 135:/usr/lib/avr/include/util/delay.h ****    Also, the backward compatible
 136:/usr/lib/avr/include/util/delay.h ****    algorithm will be chosen if the code is compiled in a <em>freestanding
 137:/usr/lib/avr/include/util/delay.h ****    environment</em> (GCC option \c -ffreestanding), as the math functions
 138:/usr/lib/avr/include/util/delay.h ****    required for rounding are not available to the compiler then.
 139:/usr/lib/avr/include/util/delay.h **** 
 140:/usr/lib/avr/include/util/delay.h ****  */
 141:/usr/lib/avr/include/util/delay.h **** void
 142:/usr/lib/avr/include/util/delay.h **** _delay_ms(double __ms)
 143:/usr/lib/avr/include/util/delay.h **** {
 144:/usr/lib/avr/include/util/delay.h **** 	double __tmp ; 
 145:/usr/lib/avr/include/util/delay.h **** #if __HAS_DELAY_CYCLES && defined(__OPTIMIZE__) && \
 146:/usr/lib/avr/include/util/delay.h ****   !defined(__DELAY_BACKWARD_COMPATIBLE__) &&	   \
 147:/usr/lib/avr/include/util/delay.h ****   __STDC_HOSTED__
 148:/usr/lib/avr/include/util/delay.h **** 	uint32_t __ticks_dc;
 149:/usr/lib/avr/include/util/delay.h **** 	extern void __builtin_avr_delay_cycles(unsigned long);
 150:/usr/lib/avr/include/util/delay.h **** 	__tmp = ((F_CPU) / 1e3) * __ms;
 151:/usr/lib/avr/include/util/delay.h **** 
 152:/usr/lib/avr/include/util/delay.h **** 	#if defined(__DELAY_ROUND_DOWN__)
 153:/usr/lib/avr/include/util/delay.h **** 		__ticks_dc = (uint32_t)fabs(__tmp);
 154:/usr/lib/avr/include/util/delay.h **** 
 155:/usr/lib/avr/include/util/delay.h **** 	#elif defined(__DELAY_ROUND_CLOSEST__)
 156:/usr/lib/avr/include/util/delay.h **** 		__ticks_dc = (uint32_t)(fabs(__tmp)+0.5);
 157:/usr/lib/avr/include/util/delay.h **** 
 158:/usr/lib/avr/include/util/delay.h **** 	#else
 159:/usr/lib/avr/include/util/delay.h **** 		//round up by default
 160:/usr/lib/avr/include/util/delay.h **** 		__ticks_dc = (uint32_t)(ceil(fabs(__tmp)));
 161:/usr/lib/avr/include/util/delay.h **** 	#endif
 162:/usr/lib/avr/include/util/delay.h **** 
 163:/usr/lib/avr/include/util/delay.h **** 	__builtin_avr_delay_cycles(__ticks_dc);
 586               		.stabn	68,0,163,.LM4-.LFBB1
 587               	.LM4:
 588 000a 2FEF      		ldi r18,lo8(319999)
 589 000c 31EE      		ldi r19,hi8(319999)
 590 000e 84E0      		ldi r24,hlo8(319999)
 591 0010 2150      		1: subi r18,1
 592 0012 3040      		sbci r19,0
 593 0014 8040      		sbci r24,0
 594 0016 01F4      		brne 1b
 595 0018 00C0      		rjmp .
GAS LISTING /tmp/cccJIYS7.s 			page 39


 596 001a 0000      		nop
 597 001c 00C0      		rjmp .L2
 598               	.LBE19:
 599               	.LBE18:
 600               		.size	errorLed, .-errorLed
 601               	.Lscope1:
 602               		.stabs	"",36,0,0,.Lscope1-.LFBB1
 603               		.stabd	78,0,0
 604               		.text
 605               		.stabs	"twiStart:f(0,47)",36,0,193,twiStart
 606               		.type	twiStart, @function
 607               	twiStart:
 608               		.stabd	46,0,0
 609               		.stabs	"ov7670.c",132,0,0,.Ltext2
 610               	.Ltext2:
 190:ov7670.c      **** 		_delay_ms(100);
 191:ov7670.c      **** 	}
 192:ov7670.c      **** }
 193:ov7670.c      **** static void twiStart(void){
 611               		.stabn	68,0,193,.LM5-.LFBB2
 612               	.LM5:
 613               	.LFBB2:
 614               	/* prologue: function */
 615               	/* frame size = 0 */
 616               	/* stack size = 0 */
 617               	.L__stack_usage = 0
 194:ov7670.c      **** 	TWCR=_BV(TWINT)| _BV(TWSTA)| _BV(TWEN);//send start
 618               		.stabn	68,0,194,.LM6-.LFBB2
 619               	.LM6:
 620 0000 84EA      		ldi r24,lo8(-92)
 621 0002 8093 BC00 		sts 188,r24
 622               	.L6:
 195:ov7670.c      **** 	while(!(TWCR & (1<<TWINT)));//wait for start to be transmitted
 623               		.stabn	68,0,195,.LM7-.LFBB2
 624               	.LM7:
 625 0006 8091 BC00 		lds r24,188
 626 000a 87FF      		sbrs r24,7
 627 000c 00C0      		rjmp .L6
 196:ov7670.c      **** 	if((TWSR & 0xF8)!=TW_START)
 628               		.stabn	68,0,196,.LM8-.LFBB2
 629               	.LM8:
 630 000e 8091 B900 		lds r24,185
 631 0012 887F      		andi r24,lo8(-8)
 632 0014 8830      		cpi r24,lo8(8)
 633 0016 01F4      		brne .L8
 634 0018 0895      		ret
 635               	.L8:
 197:ov7670.c      **** 		errorLed();
 636               		.stabn	68,0,197,.LM9-.LFBB2
 637               	.LM9:
 638 001a 0E94 0000 		call errorLed
 639               		.size	twiStart, .-twiStart
 640               	.Lscope2:
 641               		.stabs	"",36,0,0,.Lscope2-.LFBB2
 642               		.stabd	78,0,0
 643               		.stabs	"twiWriteByte:f(0,47)",36,0,199,twiWriteByte
 644               		.stabs	"DATA:P(2,2)",64,0,199,24
GAS LISTING /tmp/cccJIYS7.s 			page 40


 645               		.stabs	"type:P(2,2)",64,0,199,22
 646               		.type	twiWriteByte, @function
 647               	twiWriteByte:
 648               		.stabd	46,0,0
 198:ov7670.c      **** }
 199:ov7670.c      **** static void twiWriteByte(uint8_t DATA,uint8_t type){
 649               		.stabn	68,0,199,.LM10-.LFBB3
 650               	.LM10:
 651               	.LFBB3:
 652               	/* prologue: function */
 653               	/* frame size = 0 */
 654               	/* stack size = 0 */
 655               	.L__stack_usage = 0
 200:ov7670.c      **** 	TWDR = DATA;
 656               		.stabn	68,0,200,.LM11-.LFBB3
 657               	.LM11:
 658 001e 8093 BB00 		sts 187,r24
 201:ov7670.c      **** 	TWCR = _BV(TWINT) | _BV(TWEN);		/* clear interrupt to start transmission */
 659               		.stabn	68,0,201,.LM12-.LFBB3
 660               	.LM12:
 661 0022 84E8      		ldi r24,lo8(-124)
 662 0024 8093 BC00 		sts 188,r24
 663               	.L11:
 202:ov7670.c      **** 	while (!(TWCR & (1<<TWINT)));		/* wait for transmission */
 664               		.stabn	68,0,202,.LM13-.LFBB3
 665               	.LM13:
 666 0028 8091 BC00 		lds r24,188
 667 002c 87FF      		sbrs r24,7
 668 002e 00C0      		rjmp .L11
 203:ov7670.c      **** 	if ((TWSR & 0xF8) != type)
 669               		.stabn	68,0,203,.LM14-.LFBB3
 670               	.LM14:
 671 0030 8091 B900 		lds r24,185
 672 0034 887F      		andi r24,lo8(-8)
 673 0036 90E0      		ldi r25,0
 674 0038 70E0      		ldi r23,0
 675 003a 8617      		cp r24,r22
 676 003c 9707      		cpc r25,r23
 677 003e 01F4      		brne .L13
 678 0040 0895      		ret
 679               	.L13:
 204:ov7670.c      **** 		errorLed();
 680               		.stabn	68,0,204,.LM15-.LFBB3
 681               	.LM15:
 682 0042 0E94 0000 		call errorLed
 683               		.size	twiWriteByte, .-twiWriteByte
 684               	.Lscope3:
 685               		.stabs	"",36,0,0,.Lscope3-.LFBB3
 686               		.stabd	78,0,0
 687               		.stabs	"wrReg:F(0,47)",36,0,206,wrReg
 688               		.stabs	"reg:P(2,2)",64,0,206,29
 689               		.stabs	"dat:P(2,2)",64,0,206,28
 690               	.global	wrReg
 691               		.type	wrReg, @function
 692               	wrReg:
 693               		.stabd	46,0,0
 205:ov7670.c      **** }
GAS LISTING /tmp/cccJIYS7.s 			page 41


 206:ov7670.c      **** void wrReg(uint8_t reg,uint8_t dat){
 694               		.stabn	68,0,206,.LM16-.LFBB4
 695               	.LM16:
 696               	.LFBB4:
 697 0046 CF93      		push r28
 698 0048 DF93      		push r29
 699               	/* prologue: function */
 700               	/* frame size = 0 */
 701               	/* stack size = 2 */
 702               	.L__stack_usage = 2
 703 004a D82F      		mov r29,r24
 704 004c C62F      		mov r28,r22
 207:ov7670.c      **** 	//send start condition
 208:ov7670.c      **** 	twiStart();
 705               		.stabn	68,0,208,.LM17-.LFBB4
 706               	.LM17:
 707 004e 0E94 0000 		call twiStart
 209:ov7670.c      **** 	twiWriteByte(OV7670_I2C_ADDRESS<<1,TW_MT_SLA_ACK);
 708               		.stabn	68,0,209,.LM18-.LFBB4
 709               	.LM18:
 710 0052 68E1      		ldi r22,lo8(24)
 711 0054 82E4      		ldi r24,lo8(66)
 712 0056 0E94 0000 		call twiWriteByte
 210:ov7670.c      **** 	twiWriteByte(reg,TW_MT_DATA_ACK);
 713               		.stabn	68,0,210,.LM19-.LFBB4
 714               	.LM19:
 715 005a 68E2      		ldi r22,lo8(40)
 716 005c 8D2F      		mov r24,r29
 717 005e 0E94 0000 		call twiWriteByte
 211:ov7670.c      **** 	twiWriteByte(dat,TW_MT_DATA_ACK);
 718               		.stabn	68,0,211,.LM20-.LFBB4
 719               	.LM20:
 720 0062 68E2      		ldi r22,lo8(40)
 721 0064 8C2F      		mov r24,r28
 722 0066 0E94 0000 		call twiWriteByte
 212:ov7670.c      **** 	TWCR = (1<<TWINT)|(1<<TWEN)|(1<<TWSTO);//send stop
 723               		.stabn	68,0,212,.LM21-.LFBB4
 724               	.LM21:
 725 006a 84E9      		ldi r24,lo8(-108)
 726 006c 8093 BC00 		sts 188,r24
 727               	.LBB20:
 728               	.LBB21:
 729               		.stabs	"/usr/lib/avr/include/util/delay.h",132,0,0,.Ltext3
 730               	.Ltext3:
 731               		.stabn	68,0,163,.LM22-.LFBB4
 732               	.LM22:
 733 0070 8FE9      		ldi r24,lo8(3999)
 734 0072 9FE0      		ldi r25,hi8(3999)
 735 0074 0197      		1: sbiw r24,1
 736 0076 01F4      		brne 1b
 737 0078 00C0      		rjmp .
 738 007a 0000      		nop
 739               	/* epilogue start */
 740               	.LBE21:
 741               	.LBE20:
 742               		.stabs	"ov7670.c",132,0,0,.Ltext4
 743               	.Ltext4:
GAS LISTING /tmp/cccJIYS7.s 			page 42


 213:ov7670.c      **** 	_delay_ms(1);
 214:ov7670.c      **** }
 744               		.stabn	68,0,214,.LM23-.LFBB4
 745               	.LM23:
 746 007c DF91      		pop r29
 747 007e CF91      		pop r28
 748 0080 0895      		ret
 749               		.size	wrReg, .-wrReg
 750               	.Lscope4:
 751               		.stabs	"",36,0,0,.Lscope4-.LFBB4
 752               		.stabd	78,0,0
 753               		.stabs	"wrSensorRegs8_8:f(0,47)",36,0,243,wrSensorRegs8_8
 754               		.stabs	"reglist:P(0,48)=*(0,49)=k(9,3)",64,0,243,28
 755               		.type	wrSensorRegs8_8, @function
 756               	wrSensorRegs8_8:
 757               		.stabd	46,0,0
 215:ov7670.c      **** static uint8_t twiRd(uint8_t nack){
 216:ov7670.c      **** 	if (nack){
 217:ov7670.c      **** 		TWCR=_BV(TWINT) | _BV(TWEN);
 218:ov7670.c      **** 		while ((TWCR & _BV(TWINT)) == 0);	/* wait for transmission */
 219:ov7670.c      **** 		if ((TWSR & 0xF8) != TW_MR_DATA_NACK)
 220:ov7670.c      **** 			errorLed();
 221:ov7670.c      **** 	}else{
 222:ov7670.c      **** 		TWCR=_BV(TWINT) | _BV(TWEN) | _BV(TWEA);
 223:ov7670.c      **** 		while ((TWCR & _BV(TWINT)) == 0) ; /* wait for transmission */
 224:ov7670.c      **** 		if ((TWSR & 0xF8) != TW_MR_DATA_ACK)
 225:ov7670.c      **** 			errorLed();
 226:ov7670.c      **** 	}
 227:ov7670.c      **** 	return TWDR;
 228:ov7670.c      **** }
 229:ov7670.c      **** uint8_t rdReg(uint8_t reg){
 230:ov7670.c      **** 	uint8_t dat;
 231:ov7670.c      **** 	twiStart();
 232:ov7670.c      **** 	twiWriteByte(OV7670_I2C_ADDRESS<<1,TW_MT_SLA_ACK);
 233:ov7670.c      **** 	twiWriteByte(reg,TW_MT_DATA_ACK);
 234:ov7670.c      **** 	TWCR = (1<<TWINT)|(1<<TWEN)|(1<<TWSTO);//send stop
 235:ov7670.c      **** 	_delay_ms(1);
 236:ov7670.c      **** 	twiStart();
 237:ov7670.c      **** 	twiWriteByte((OV7670_I2C_ADDRESS<<1)|1,TW_MR_SLA_ACK);
 238:ov7670.c      **** 	dat=twiRd(1);
 239:ov7670.c      **** 	TWCR = (1<<TWINT)|(1<<TWEN)|(1<<TWSTO);//send stop
 240:ov7670.c      **** 	_delay_ms(1);
 241:ov7670.c      **** 	return dat;
 242:ov7670.c      **** }
 243:ov7670.c      **** static void wrSensorRegs8_8(const struct regval_list reglist[]){
 758               		.stabn	68,0,243,.LM24-.LFBB5
 759               	.LM24:
 760               	.LFBB5:
 761 0082 CF93      		push r28
 762 0084 DF93      		push r29
 763               	/* prologue: function */
 764               	/* frame size = 0 */
 765               	/* stack size = 2 */
 766               	.L__stack_usage = 2
 767 0086 EC01      		movw r28,r24
 768 0088 00C0      		rjmp .L18
 769               	.L16:
GAS LISTING /tmp/cccJIYS7.s 			page 43


 770               	.LBB22:
 244:ov7670.c      **** 	const struct regval_list *next = reglist;
 245:ov7670.c      **** 	for(;;){
 246:ov7670.c      **** 		uint8_t reg_addr = pgm_read_byte(&next->reg_num);
 247:ov7670.c      **** 		uint8_t reg_val = pgm_read_byte(&next->value);
 248:ov7670.c      **** 		if((reg_addr==255)&&(reg_val==255))
 249:ov7670.c      **** 			break;
 250:ov7670.c      **** 		wrReg(reg_addr, reg_val);
 771               		.stabn	68,0,250,.LM25-.LFBB5
 772               	.LM25:
 773 008a 0E94 0000 		call wrReg
 251:ov7670.c      **** 		next++;
 774               		.stabn	68,0,251,.LM26-.LFBB5
 775               	.LM26:
 776 008e 2296      		adiw r28,2
 777               	.L18:
 778               	.LBB23:
 246:ov7670.c      **** 		uint8_t reg_val = pgm_read_byte(&next->value);
 779               		.stabn	68,0,246,.LM27-.LFBB5
 780               	.LM27:
 781 0090 FE01      		movw r30,r28
 782               	/* #APP */
 783               	 ;  246 "ov7670.c" 1
 784 0092 8491      		lpm r24, Z
 785               		
 786               	 ;  0 "" 2
 787               	/* #NOAPP */
 788 0094 3196      		adiw r30,1
 789               	.LBE23:
 790               	.LBB24:
 247:ov7670.c      **** 		if((reg_addr==255)&&(reg_val==255))
 791               		.stabn	68,0,247,.LM28-.LFBB5
 792               	.LM28:
 793               	/* #APP */
 794               	 ;  247 "ov7670.c" 1
 795 0096 6491      		lpm r22, Z
 796               		
 797               	 ;  0 "" 2
 798               	/* #NOAPP */
 799               	.LBE24:
 248:ov7670.c      **** 			break;
 800               		.stabn	68,0,248,.LM29-.LFBB5
 801               	.LM29:
 802 0098 8F3F      		cpi r24,lo8(-1)
 803 009a 01F4      		brne .L16
 248:ov7670.c      **** 			break;
 804               		.stabn	68,0,248,.LM30-.LFBB5
 805               	.LM30:
 806 009c 6F3F      		cpi r22,lo8(-1)
 807 009e 01F4      		brne .L16
 808               	/* epilogue start */
 809               	.LBE22:
 252:ov7670.c      **** 	}
 253:ov7670.c      **** }
 810               		.stabn	68,0,253,.LM31-.LFBB5
 811               	.LM31:
 812 00a0 DF91      		pop r29
GAS LISTING /tmp/cccJIYS7.s 			page 44


 813 00a2 CF91      		pop r28
 814 00a4 0895      		ret
 815               		.size	wrSensorRegs8_8, .-wrSensorRegs8_8
 816               		.stabs	"reg_addr:r(2,2)",64,0,246,25
 817               		.stabn	192,0,0,.LBB22-.LFBB5
 818               		.stabn	224,0,0,.LBE22-.LFBB5
 819               	.Lscope5:
 820               		.stabs	"",36,0,0,.Lscope5-.LFBB5
 821               		.stabd	78,0,0
 822               		.stabs	"rdReg:F(2,2)",36,0,229,rdReg
 823               		.stabs	"reg:P(2,2)",64,0,229,28
 824               	.global	rdReg
 825               		.type	rdReg, @function
 826               	rdReg:
 827               		.stabd	46,0,0
 229:ov7670.c      **** 	uint8_t dat;
 828               		.stabn	68,0,229,.LM32-.LFBB6
 829               	.LM32:
 830               	.LFBB6:
 831 00a6 CF93      		push r28
 832               	/* prologue: function */
 833               	/* frame size = 0 */
 834               	/* stack size = 1 */
 835               	.L__stack_usage = 1
 836 00a8 C82F      		mov r28,r24
 231:ov7670.c      **** 	twiWriteByte(OV7670_I2C_ADDRESS<<1,TW_MT_SLA_ACK);
 837               		.stabn	68,0,231,.LM33-.LFBB6
 838               	.LM33:
 839 00aa 0E94 0000 		call twiStart
 232:ov7670.c      **** 	twiWriteByte(reg,TW_MT_DATA_ACK);
 840               		.stabn	68,0,232,.LM34-.LFBB6
 841               	.LM34:
 842 00ae 68E1      		ldi r22,lo8(24)
 843 00b0 82E4      		ldi r24,lo8(66)
 844 00b2 0E94 0000 		call twiWriteByte
 233:ov7670.c      **** 	TWCR = (1<<TWINT)|(1<<TWEN)|(1<<TWSTO);//send stop
 845               		.stabn	68,0,233,.LM35-.LFBB6
 846               	.LM35:
 847 00b6 68E2      		ldi r22,lo8(40)
 848 00b8 8C2F      		mov r24,r28
 849 00ba 0E94 0000 		call twiWriteByte
 234:ov7670.c      **** 	_delay_ms(1);
 850               		.stabn	68,0,234,.LM36-.LFBB6
 851               	.LM36:
 852 00be 84E9      		ldi r24,lo8(-108)
 853 00c0 8093 BC00 		sts 188,r24
 854               	.LBB31:
 855               	.LBB32:
 856               		.stabs	"/usr/lib/avr/include/util/delay.h",132,0,0,.Ltext5
 857               	.Ltext5:
 858               		.stabn	68,0,163,.LM37-.LFBB6
 859               	.LM37:
 860 00c4 8FE9      		ldi r24,lo8(3999)
 861 00c6 9FE0      		ldi r25,hi8(3999)
 862 00c8 0197      		1: sbiw r24,1
 863 00ca 01F4      		brne 1b
 864 00cc 00C0      		rjmp .
GAS LISTING /tmp/cccJIYS7.s 			page 45


 865 00ce 0000      		nop
 866               	.LBE32:
 867               	.LBE31:
 868               		.stabs	"ov7670.c",132,0,0,.Ltext6
 869               	.Ltext6:
 236:ov7670.c      **** 	twiWriteByte((OV7670_I2C_ADDRESS<<1)|1,TW_MR_SLA_ACK);
 870               		.stabn	68,0,236,.LM38-.LFBB6
 871               	.LM38:
 872 00d0 0E94 0000 		call twiStart
 237:ov7670.c      **** 	dat=twiRd(1);
 873               		.stabn	68,0,237,.LM39-.LFBB6
 874               	.LM39:
 875 00d4 60E4      		ldi r22,lo8(64)
 876 00d6 83E4      		ldi r24,lo8(67)
 877 00d8 0E94 0000 		call twiWriteByte
 878               	.LBB33:
 879               	.LBB34:
 217:ov7670.c      **** 		while ((TWCR & _BV(TWINT)) == 0);	/* wait for transmission */
 880               		.stabn	68,0,217,.LM40-.LFBB6
 881               	.LM40:
 882 00dc 84E8      		ldi r24,lo8(-124)
 883 00de 8093 BC00 		sts 188,r24
 884               	.L21:
 218:ov7670.c      **** 		if ((TWSR & 0xF8) != TW_MR_DATA_NACK)
 885               		.stabn	68,0,218,.LM41-.LFBB6
 886               	.LM41:
 887 00e2 8091 BC00 		lds r24,188
 888 00e6 87FF      		sbrs r24,7
 889 00e8 00C0      		rjmp .L21
 219:ov7670.c      **** 			errorLed();
 890               		.stabn	68,0,219,.LM42-.LFBB6
 891               	.LM42:
 892 00ea 8091 B900 		lds r24,185
 893 00ee 887F      		andi r24,lo8(-8)
 894 00f0 8835      		cpi r24,lo8(88)
 895 00f2 01F4      		brne .L23
 227:ov7670.c      **** }
 896               		.stabn	68,0,227,.LM43-.LFBB6
 897               	.LM43:
 898 00f4 8091 BB00 		lds r24,187
 899               	.LBE34:
 900               	.LBE33:
 239:ov7670.c      **** 	_delay_ms(1);
 901               		.stabn	68,0,239,.LM44-.LFBB6
 902               	.LM44:
 903 00f8 94E9      		ldi r25,lo8(-108)
 904 00fa 9093 BC00 		sts 188,r25
 905               	.LBB36:
 906               	.LBB37:
 907               		.stabs	"/usr/lib/avr/include/util/delay.h",132,0,0,.Ltext7
 908               	.Ltext7:
 909               		.stabn	68,0,163,.LM45-.LFBB6
 910               	.LM45:
 911 00fe EFE9      		ldi r30,lo8(3999)
 912 0100 FFE0      		ldi r31,hi8(3999)
 913 0102 3197      		1: sbiw r30,1
 914 0104 01F4      		brne 1b
GAS LISTING /tmp/cccJIYS7.s 			page 46


 915 0106 00C0      		rjmp .
 916 0108 0000      		nop
 917               	/* epilogue start */
 918               	.LBE37:
 919               	.LBE36:
 920               		.stabs	"ov7670.c",132,0,0,.Ltext8
 921               	.Ltext8:
 242:ov7670.c      **** static void wrSensorRegs8_8(const struct regval_list reglist[]){
 922               		.stabn	68,0,242,.LM46-.LFBB6
 923               	.LM46:
 924 010a CF91      		pop r28
 925 010c 0895      		ret
 926               	.L23:
 927               	.LBB38:
 928               	.LBB35:
 220:ov7670.c      **** 	}else{
 929               		.stabn	68,0,220,.LM47-.LFBB6
 930               	.LM47:
 931 010e 0E94 0000 		call errorLed
 932               	.LBE35:
 933               	.LBE38:
 934               		.size	rdReg, .-rdReg
 935               	.Lscope6:
 936               		.stabs	"",36,0,0,.Lscope6-.LFBB6
 937               		.stabd	78,0,0
 938               		.stabs	"setColorSpace:F(0,47)",36,0,254,setColorSpace
 939               		.stabs	"color:P(9,2)",64,0,254,24
 940               	.global	setColorSpace
 941               		.type	setColorSpace, @function
 942               	setColorSpace:
 943               		.stabd	46,0,0
 254:ov7670.c      **** void setColorSpace(enum COLORSPACE color){
 944               		.stabn	68,0,254,.LM48-.LFBB7
 945               	.LM48:
 946               	.LFBB7:
 947               	/* prologue: function */
 948               	/* frame size = 0 */
 949               	/* stack size = 0 */
 950               	.L__stack_usage = 0
 255:ov7670.c      **** 	switch(color){
 951               		.stabn	68,0,255,.LM49-.LFBB7
 952               	.LM49:
 953 0112 8130      		cpi r24,lo8(1)
 954 0114 01F0      		breq .L26
 955 0116 00F0      		brlo .L27
 956 0118 8230      		cpi r24,lo8(2)
 957 011a 01F4      		brne .L30
 256:ov7670.c      **** 		case YUV422:
 257:ov7670.c      **** 			wrSensorRegs8_8(yuv422_ov7670);
 258:ov7670.c      **** 		break;
 259:ov7670.c      **** 		case RGB565:
 260:ov7670.c      **** 			wrSensorRegs8_8(rgb565_ov7670);
 261:ov7670.c      **** 			{uint8_t temp=rdReg(0x11);
 262:ov7670.c      **** 			_delay_ms(1);
 263:ov7670.c      **** 			wrReg(0x11,temp);}//according to the Linux kernel driver rgb565 PCLK needs rewriting
 264:ov7670.c      **** 		break;
 265:ov7670.c      **** 		case BAYER_RGB:
GAS LISTING /tmp/cccJIYS7.s 			page 47


 266:ov7670.c      **** 			wrSensorRegs8_8(bayerRGB_ov7670);
 958               		.stabn	68,0,266,.LM50-.LFBB7
 959               	.LM50:
 960 011c 80E0      		ldi r24,lo8(bayerRGB_ov7670)
 961 011e 90E0      		ldi r25,hi8(bayerRGB_ov7670)
 962 0120 0C94 0000 		jmp wrSensorRegs8_8
 963               	.L30:
 964 0124 0895      		ret
 965               	.L27:
 257:ov7670.c      **** 		break;
 966               		.stabn	68,0,257,.LM51-.LFBB7
 967               	.LM51:
 968 0126 80E0      		ldi r24,lo8(yuv422_ov7670)
 969 0128 90E0      		ldi r25,hi8(yuv422_ov7670)
 970 012a 0C94 0000 		jmp wrSensorRegs8_8
 971               	.L26:
 972               	.LBB44:
 973               	.LBB45:
 260:ov7670.c      **** 			{uint8_t temp=rdReg(0x11);
 974               		.stabn	68,0,260,.LM52-.LFBB7
 975               	.LM52:
 976 012e 80E0      		ldi r24,lo8(rgb565_ov7670)
 977 0130 90E0      		ldi r25,hi8(rgb565_ov7670)
 978 0132 0E94 0000 		call wrSensorRegs8_8
 979               	.LBB46:
 261:ov7670.c      **** 			_delay_ms(1);
 980               		.stabn	68,0,261,.LM53-.LFBB7
 981               	.LM53:
 982 0136 81E1      		ldi r24,lo8(17)
 983 0138 0E94 0000 		call rdReg
 984               	.LBB47:
 985               	.LBB48:
 986               		.stabs	"/usr/lib/avr/include/util/delay.h",132,0,0,.Ltext9
 987               	.Ltext9:
 988               		.stabn	68,0,163,.LM54-.LFBB7
 989               	.LM54:
 990 013c EFE9      		ldi r30,lo8(3999)
 991 013e FFE0      		ldi r31,hi8(3999)
 992 0140 3197      		1: sbiw r30,1
 993 0142 01F4      		brne 1b
 994 0144 00C0      		rjmp .
 995 0146 0000      		nop
 996               	.LBE48:
 997               	.LBE47:
 998               		.stabs	"ov7670.c",132,0,0,.Ltext10
 999               	.Ltext10:
 263:ov7670.c      **** 		break;
 1000               		.stabn	68,0,263,.LM55-.LFBB7
 1001               	.LM55:
 1002 0148 682F      		mov r22,r24
 1003 014a 81E1      		ldi r24,lo8(17)
 1004 014c 0C94 0000 		jmp wrReg
 1005               	.LBE46:
 1006               	.LBE45:
 1007               	.LBE44:
 1008               		.size	setColorSpace, .-setColorSpace
 1009               		.stabs	"temp:r(2,2)",64,0,261,24
GAS LISTING /tmp/cccJIYS7.s 			page 48


 1010               		.stabn	192,0,0,.LBB46-.LFBB7
 1011               		.stabn	224,0,0,.LBE46-.LFBB7
 1012               	.Lscope7:
 1013               		.stabs	"",36,0,0,.Lscope7-.LFBB7
 1014               		.stabd	78,0,0
 1015               		.stabs	"setRes:F(0,47)",36,0,270,setRes
 1016               		.stabs	"res:P(9,1)",64,0,270,24
 1017               	.global	setRes
 1018               		.type	setRes, @function
 1019               	setRes:
 1020               		.stabd	46,0,0
 267:ov7670.c      **** 		break;
 268:ov7670.c      **** 	}
 269:ov7670.c      **** }
 270:ov7670.c      **** void setRes(enum RESOLUTION res){
 1021               		.stabn	68,0,270,.LM56-.LFBB8
 1022               	.LM56:
 1023               	.LFBB8:
 1024               	/* prologue: function */
 1025               	/* frame size = 0 */
 1026               	/* stack size = 0 */
 1027               	.L__stack_usage = 0
 271:ov7670.c      **** 	switch(res){
 1028               		.stabn	68,0,271,.LM57-.LFBB8
 1029               	.LM57:
 1030 0150 8130      		cpi r24,lo8(1)
 1031 0152 01F0      		breq .L33
 1032 0154 00F0      		brlo .L34
 1033 0156 8230      		cpi r24,lo8(2)
 1034 0158 01F4      		brne .L37
 272:ov7670.c      **** 		case VGA:
 273:ov7670.c      **** 			wrReg(REG_COM3,0);	// REG_COM3
 274:ov7670.c      **** 			wrSensorRegs8_8(vga_ov7670);
 275:ov7670.c      **** 		break;
 276:ov7670.c      **** 		case QVGA:
 277:ov7670.c      **** 			wrReg(REG_COM3,4);	// REG_COM3 enable scaling
 278:ov7670.c      **** 			wrSensorRegs8_8(qvga_ov7670);
 279:ov7670.c      **** 		break;
 280:ov7670.c      **** 		case QQVGA:
 281:ov7670.c      **** 			wrReg(REG_COM3,4);	// REG_COM3 enable scaling
 1035               		.stabn	68,0,281,.LM58-.LFBB8
 1036               	.LM58:
 1037 015a 64E0      		ldi r22,lo8(4)
 1038 015c 8CE0      		ldi r24,lo8(12)
 1039 015e 0E94 0000 		call wrReg
 282:ov7670.c      **** 			wrSensorRegs8_8(qqvga_ov7670);
 1040               		.stabn	68,0,282,.LM59-.LFBB8
 1041               	.LM59:
 1042 0162 80E0      		ldi r24,lo8(qqvga_ov7670)
 1043 0164 90E0      		ldi r25,hi8(qqvga_ov7670)
 1044 0166 0C94 0000 		jmp wrSensorRegs8_8
 1045               	.L37:
 1046 016a 0895      		ret
 1047               	.L34:
 1048               	.LBB51:
 1049               	.LBB52:
 273:ov7670.c      **** 			wrSensorRegs8_8(vga_ov7670);
GAS LISTING /tmp/cccJIYS7.s 			page 49


 1050               		.stabn	68,0,273,.LM60-.LFBB8
 1051               	.LM60:
 1052 016c 60E0      		ldi r22,0
 1053 016e 8CE0      		ldi r24,lo8(12)
 1054 0170 0E94 0000 		call wrReg
 274:ov7670.c      **** 		break;
 1055               		.stabn	68,0,274,.LM61-.LFBB8
 1056               	.LM61:
 1057 0174 80E0      		ldi r24,lo8(vga_ov7670)
 1058 0176 90E0      		ldi r25,hi8(vga_ov7670)
 1059 0178 0C94 0000 		jmp wrSensorRegs8_8
 1060               	.L33:
 1061               	.LBE52:
 1062               	.LBE51:
 277:ov7670.c      **** 			wrSensorRegs8_8(qvga_ov7670);
 1063               		.stabn	68,0,277,.LM62-.LFBB8
 1064               	.LM62:
 1065 017c 64E0      		ldi r22,lo8(4)
 1066 017e 8CE0      		ldi r24,lo8(12)
 1067 0180 0E94 0000 		call wrReg
 278:ov7670.c      **** 		break;
 1068               		.stabn	68,0,278,.LM63-.LFBB8
 1069               	.LM63:
 1070 0184 80E0      		ldi r24,lo8(qvga_ov7670)
 1071 0186 90E0      		ldi r25,hi8(qvga_ov7670)
 1072 0188 0C94 0000 		jmp wrSensorRegs8_8
 1073               		.size	setRes, .-setRes
 1074               	.Lscope8:
 1075               		.stabs	"",36,0,0,.Lscope8-.LFBB8
 1076               		.stabd	78,0,0
 1077               		.stabs	"camInit:F(0,47)",36,0,286,camInit
 1078               	.global	camInit
 1079               		.type	camInit, @function
 1080               	camInit:
 1081               		.stabd	46,0,0
 283:ov7670.c      **** 		break;
 284:ov7670.c      **** 	}
 285:ov7670.c      **** }
 286:ov7670.c      **** void camInit(void){
 1082               		.stabn	68,0,286,.LM64-.LFBB9
 1083               	.LM64:
 1084               	.LFBB9:
 1085               	/* prologue: function */
 1086               	/* frame size = 0 */
 1087               	/* stack size = 0 */
 1088               	.L__stack_usage = 0
 287:ov7670.c      **** 	wrReg(0x12, 0x80);//Reset the camera.
 1089               		.stabn	68,0,287,.LM65-.LFBB9
 1090               	.LM65:
 1091 018c 60E8      		ldi r22,lo8(-128)
 1092 018e 82E1      		ldi r24,lo8(18)
 1093 0190 0E94 0000 		call wrReg
 1094               	.LBB53:
 1095               	.LBB54:
 1096               		.stabs	"/usr/lib/avr/include/util/delay.h",132,0,0,.Ltext11
 1097               	.Ltext11:
 1098               		.stabn	68,0,163,.LM66-.LFBB9
GAS LISTING /tmp/cccJIYS7.s 			page 50


 1099               	.LM66:
 1100 0194 2FEF      		ldi r18,lo8(319999)
 1101 0196 81EE      		ldi r24,hi8(319999)
 1102 0198 94E0      		ldi r25,hlo8(319999)
 1103 019a 2150      		1: subi r18,1
 1104 019c 8040      		sbci r24,0
 1105 019e 9040      		sbci r25,0
 1106 01a0 01F4      		brne 1b
 1107 01a2 00C0      		rjmp .
 1108 01a4 0000      		nop
 1109               	.LBE54:
 1110               	.LBE53:
 1111               		.stabs	"ov7670.c",132,0,0,.Ltext12
 1112               	.Ltext12:
 288:ov7670.c      **** 	_delay_ms(100);
 289:ov7670.c      **** 	wrSensorRegs8_8(ov7670_default_regs);
 1113               		.stabn	68,0,289,.LM67-.LFBB9
 1114               	.LM67:
 1115 01a6 80E0      		ldi r24,lo8(ov7670_default_regs)
 1116 01a8 90E0      		ldi r25,hi8(ov7670_default_regs)
 1117 01aa 0E94 0000 		call wrSensorRegs8_8
 290:ov7670.c      **** 	wrReg(REG_COM10,32);//PCLK does not toggle on HBLANK.
 1118               		.stabn	68,0,290,.LM68-.LFBB9
 1119               	.LM68:
 1120 01ae 60E2      		ldi r22,lo8(32)
 1121 01b0 85E1      		ldi r24,lo8(21)
 1122 01b2 0C94 0000 		jmp wrReg
 1123               		.size	camInit, .-camInit
 1124               	.Lscope9:
 1125               		.stabs	"",36,0,0,.Lscope9-.LFBB9
 1126               		.stabd	78,0,0
 1127               		.section	.rodata
 1128               		.type	ov7670_default_regs, @object
 1129               		.size	ov7670_default_regs, 314
 1130               	ov7670_default_regs:
 1131 0000 12        		.byte	18
 1132 0001 80        		.byte	-128
 1133 0002 3A        		.byte	58
 1134 0003 04        		.byte	4
 1135 0004 12        		.byte	18
 1136 0005 00        		.byte	0
 1137 0006 17        		.byte	23
 1138 0007 13        		.byte	19
 1139 0008 18        		.byte	24
 1140 0009 01        		.byte	1
 1141 000a 32        		.byte	50
 1142 000b B6        		.byte	-74
 1143 000c 19        		.byte	25
 1144 000d 02        		.byte	2
 1145 000e 1A        		.byte	26
 1146 000f 7A        		.byte	122
 1147 0010 03        		.byte	3
 1148 0011 0A        		.byte	10
 1149 0012 0C        		.byte	12
 1150 0013 00        		.byte	0
 1151 0014 3E        		.byte	62
 1152 0015 00        		.byte	0
GAS LISTING /tmp/cccJIYS7.s 			page 51


 1153 0016 70        		.byte	112
 1154 0017 3A        		.byte	58
 1155 0018 71        		.byte	113
 1156 0019 35        		.byte	53
 1157 001a 72        		.byte	114
 1158 001b 11        		.byte	17
 1159 001c 73        		.byte	115
 1160 001d F0        		.byte	-16
 1161 001e A2        		.byte	-94
 1162 001f 01        		.byte	1
 1163 0020 15        		.byte	21
 1164 0021 02        		.byte	2
 1165 0022 7A        		.byte	122
 1166 0023 20        		.byte	32
 1167 0024 7B        		.byte	123
 1168 0025 10        		.byte	16
 1169 0026 7C        		.byte	124
 1170 0027 1E        		.byte	30
 1171 0028 7D        		.byte	125
 1172 0029 35        		.byte	53
 1173 002a 7E        		.byte	126
 1174 002b 5A        		.byte	90
 1175 002c 7F        		.byte	127
 1176 002d 69        		.byte	105
 1177 002e 80        		.byte	-128
 1178 002f 76        		.byte	118
 1179 0030 81        		.byte	-127
 1180 0031 80        		.byte	-128
 1181 0032 82        		.byte	-126
 1182 0033 88        		.byte	-120
 1183 0034 83        		.byte	-125
 1184 0035 8F        		.byte	-113
 1185 0036 84        		.byte	-124
 1186 0037 96        		.byte	-106
 1187 0038 85        		.byte	-123
 1188 0039 A3        		.byte	-93
 1189 003a 86        		.byte	-122
 1190 003b AF        		.byte	-81
 1191 003c 87        		.byte	-121
 1192 003d C4        		.byte	-60
 1193 003e 88        		.byte	-120
 1194 003f D7        		.byte	-41
 1195 0040 89        		.byte	-119
 1196 0041 E8        		.byte	-24
 1197 0042 13        		.byte	19
 1198 0043 C0        		.byte	-64
 1199 0044 00        		.byte	0
 1200 0045 00        		.byte	0
 1201 0046 10        		.byte	16
 1202 0047 00        		.byte	0
 1203 0048 0D        		.byte	13
 1204 0049 40        		.byte	64
 1205 004a 14        		.byte	20
 1206 004b 18        		.byte	24
 1207 004c A5        		.byte	-91
 1208 004d 05        		.byte	5
 1209 004e AB        		.byte	-85
GAS LISTING /tmp/cccJIYS7.s 			page 52


 1210 004f 07        		.byte	7
 1211 0050 24        		.byte	36
 1212 0051 95        		.byte	-107
 1213 0052 25        		.byte	37
 1214 0053 33        		.byte	51
 1215 0054 26        		.byte	38
 1216 0055 E3        		.byte	-29
 1217 0056 9F        		.byte	-97
 1218 0057 78        		.byte	120
 1219 0058 A0        		.byte	-96
 1220 0059 68        		.byte	104
 1221 005a A1        		.byte	-95
 1222 005b 03        		.byte	3
 1223 005c A6        		.byte	-90
 1224 005d D8        		.byte	-40
 1225 005e A7        		.byte	-89
 1226 005f D8        		.byte	-40
 1227 0060 A8        		.byte	-88
 1228 0061 F0        		.byte	-16
 1229 0062 A9        		.byte	-87
 1230 0063 90        		.byte	-112
 1231 0064 AA        		.byte	-86
 1232 0065 94        		.byte	-108
 1233 0066 13        		.byte	19
 1234 0067 C5        		.byte	-59
 1235 0068 30        		.byte	48
 1236 0069 00        		.byte	0
 1237 006a 31        		.byte	49
 1238 006b 00        		.byte	0
 1239 006c 0E        		.byte	14
 1240 006d 61        		.byte	97
 1241 006e 0F        		.byte	15
 1242 006f 4B        		.byte	75
 1243 0070 16        		.byte	22
 1244 0071 02        		.byte	2
 1245 0072 1E        		.byte	30
 1246 0073 07        		.byte	7
 1247 0074 21        		.byte	33
 1248 0075 02        		.byte	2
 1249 0076 22        		.byte	34
 1250 0077 91        		.byte	-111
 1251 0078 29        		.byte	41
 1252 0079 07        		.byte	7
 1253 007a 33        		.byte	51
 1254 007b 0B        		.byte	11
 1255 007c 35        		.byte	53
 1256 007d 0B        		.byte	11
 1257 007e 37        		.byte	55
 1258 007f 1D        		.byte	29
 1259 0080 38        		.byte	56
 1260 0081 71        		.byte	113
 1261 0082 39        		.byte	57
 1262 0083 2A        		.byte	42
 1263 0084 3C        		.byte	60
 1264 0085 78        		.byte	120
 1265 0086 4D        		.byte	77
 1266 0087 40        		.byte	64
GAS LISTING /tmp/cccJIYS7.s 			page 53


 1267 0088 4E        		.byte	78
 1268 0089 20        		.byte	32
 1269 008a 69        		.byte	105
 1270 008b 00        		.byte	0
 1271 008c 74        		.byte	116
 1272 008d 10        		.byte	16
 1273 008e 8D        		.byte	-115
 1274 008f 4F        		.byte	79
 1275 0090 8E        		.byte	-114
 1276 0091 00        		.byte	0
 1277 0092 8F        		.byte	-113
 1278 0093 00        		.byte	0
 1279 0094 90        		.byte	-112
 1280 0095 00        		.byte	0
 1281 0096 91        		.byte	-111
 1282 0097 00        		.byte	0
 1283 0098 96        		.byte	-106
 1284 0099 00        		.byte	0
 1285 009a 9A        		.byte	-102
 1286 009b 00        		.byte	0
 1287 009c B0        		.byte	-80
 1288 009d 84        		.byte	-124
 1289 009e B1        		.byte	-79
 1290 009f 0C        		.byte	12
 1291 00a0 B2        		.byte	-78
 1292 00a1 0E        		.byte	14
 1293 00a2 B3        		.byte	-77
 1294 00a3 82        		.byte	-126
 1295 00a4 B8        		.byte	-72
 1296 00a5 0A        		.byte	10
 1297 00a6 43        		.byte	67
 1298 00a7 0A        		.byte	10
 1299 00a8 44        		.byte	68
 1300 00a9 F0        		.byte	-16
 1301 00aa 45        		.byte	69
 1302 00ab 34        		.byte	52
 1303 00ac 46        		.byte	70
 1304 00ad 58        		.byte	88
 1305 00ae 47        		.byte	71
 1306 00af 28        		.byte	40
 1307 00b0 48        		.byte	72
 1308 00b1 3A        		.byte	58
 1309 00b2 59        		.byte	89
 1310 00b3 88        		.byte	-120
 1311 00b4 5A        		.byte	90
 1312 00b5 88        		.byte	-120
 1313 00b6 5B        		.byte	91
 1314 00b7 44        		.byte	68
 1315 00b8 5C        		.byte	92
 1316 00b9 67        		.byte	103
 1317 00ba 5D        		.byte	93
 1318 00bb 49        		.byte	73
 1319 00bc 5E        		.byte	94
 1320 00bd 0E        		.byte	14
 1321 00be 6C        		.byte	108
 1322 00bf 0A        		.byte	10
 1323 00c0 6D        		.byte	109
GAS LISTING /tmp/cccJIYS7.s 			page 54


 1324 00c1 55        		.byte	85
 1325 00c2 6E        		.byte	110
 1326 00c3 11        		.byte	17
 1327 00c4 6F        		.byte	111
 1328 00c5 9E        		.byte	-98
 1329 00c6 6A        		.byte	106
 1330 00c7 40        		.byte	64
 1331 00c8 01        		.byte	1
 1332 00c9 40        		.byte	64
 1333 00ca 02        		.byte	2
 1334 00cb 60        		.byte	96
 1335 00cc 13        		.byte	19
 1336 00cd C7        		.byte	-57
 1337 00ce 4F        		.byte	79
 1338 00cf 80        		.byte	-128
 1339 00d0 50        		.byte	80
 1340 00d1 80        		.byte	-128
 1341 00d2 51        		.byte	81
 1342 00d3 00        		.byte	0
 1343 00d4 52        		.byte	82
 1344 00d5 22        		.byte	34
 1345 00d6 53        		.byte	83
 1346 00d7 5E        		.byte	94
 1347 00d8 54        		.byte	84
 1348 00d9 80        		.byte	-128
 1349 00da 58        		.byte	88
 1350 00db 9E        		.byte	-98
 1351 00dc 41        		.byte	65
 1352 00dd 08        		.byte	8
 1353 00de 3F        		.byte	63
 1354 00df 00        		.byte	0
 1355 00e0 75        		.byte	117
 1356 00e1 05        		.byte	5
 1357 00e2 76        		.byte	118
 1358 00e3 E1        		.byte	-31
 1359 00e4 4C        		.byte	76
 1360 00e5 00        		.byte	0
 1361 00e6 77        		.byte	119
 1362 00e7 01        		.byte	1
 1363 00e8 3D        		.byte	61
 1364 00e9 48        		.byte	72
 1365 00ea 4B        		.byte	75
 1366 00eb 09        		.byte	9
 1367 00ec C9        		.byte	-55
 1368 00ed 60        		.byte	96
 1369 00ee 56        		.byte	86
 1370 00ef 40        		.byte	64
 1371 00f0 34        		.byte	52
 1372 00f1 11        		.byte	17
 1373 00f2 3B        		.byte	59
 1374 00f3 12        		.byte	18
 1375 00f4 A4        		.byte	-92
 1376 00f5 82        		.byte	-126
 1377 00f6 96        		.byte	-106
 1378 00f7 00        		.byte	0
 1379 00f8 97        		.byte	-105
 1380 00f9 30        		.byte	48
GAS LISTING /tmp/cccJIYS7.s 			page 55


 1381 00fa 98        		.byte	-104
 1382 00fb 20        		.byte	32
 1383 00fc 99        		.byte	-103
 1384 00fd 30        		.byte	48
 1385 00fe 9A        		.byte	-102
 1386 00ff 84        		.byte	-124
 1387 0100 9B        		.byte	-101
 1388 0101 29        		.byte	41
 1389 0102 9C        		.byte	-100
 1390 0103 03        		.byte	3
 1391 0104 9D        		.byte	-99
 1392 0105 4C        		.byte	76
 1393 0106 9E        		.byte	-98
 1394 0107 3F        		.byte	63
 1395 0108 78        		.byte	120
 1396 0109 04        		.byte	4
 1397 010a 79        		.byte	121
 1398 010b 01        		.byte	1
 1399 010c C8        		.byte	-56
 1400 010d F0        		.byte	-16
 1401 010e 79        		.byte	121
 1402 010f 0F        		.byte	15
 1403 0110 C8        		.byte	-56
 1404 0111 00        		.byte	0
 1405 0112 79        		.byte	121
 1406 0113 10        		.byte	16
 1407 0114 C8        		.byte	-56
 1408 0115 7E        		.byte	126
 1409 0116 79        		.byte	121
 1410 0117 0A        		.byte	10
 1411 0118 C8        		.byte	-56
 1412 0119 80        		.byte	-128
 1413 011a 79        		.byte	121
 1414 011b 0B        		.byte	11
 1415 011c C8        		.byte	-56
 1416 011d 01        		.byte	1
 1417 011e 79        		.byte	121
 1418 011f 0C        		.byte	12
 1419 0120 C8        		.byte	-56
 1420 0121 0F        		.byte	15
 1421 0122 79        		.byte	121
 1422 0123 0D        		.byte	13
 1423 0124 C8        		.byte	-56
 1424 0125 20        		.byte	32
 1425 0126 79        		.byte	121
 1426 0127 09        		.byte	9
 1427 0128 C8        		.byte	-56
 1428 0129 80        		.byte	-128
 1429 012a 79        		.byte	121
 1430 012b 02        		.byte	2
 1431 012c C8        		.byte	-56
 1432 012d C0        		.byte	-64
 1433 012e 79        		.byte	121
 1434 012f 03        		.byte	3
 1435 0130 C8        		.byte	-56
 1436 0131 40        		.byte	64
 1437 0132 79        		.byte	121
GAS LISTING /tmp/cccJIYS7.s 			page 56


 1438 0133 05        		.byte	5
 1439 0134 C8        		.byte	-56
 1440 0135 30        		.byte	48
 1441 0136 79        		.byte	121
 1442 0137 26        		.byte	38
 1443 0138 FF        		.byte	-1
 1444 0139 FF        		.byte	-1
 1445               		.type	bayerRGB_ov7670, @object
 1446               		.size	bayerRGB_ov7670, 10
 1447               	bayerRGB_ov7670:
 1448 013a 12        		.byte	18
 1449 013b 01        		.byte	1
 1450 013c 3D        		.byte	61
 1451 013d 08        		.byte	8
 1452 013e 41        		.byte	65
 1453 013f 3D        		.byte	61
 1454 0140 76        		.byte	118
 1455 0141 E1        		.byte	-31
 1456 0142 FF        		.byte	-1
 1457 0143 FF        		.byte	-1
 1458               		.type	rgb565_ov7670, @object
 1459               		.size	rgb565_ov7670, 26
 1460               	rgb565_ov7670:
 1461 0144 12        		.byte	18
 1462 0145 04        		.byte	4
 1463 0146 8C        		.byte	-116
 1464 0147 00        		.byte	0
 1465 0148 04        		.byte	4
 1466 0149 00        		.byte	0
 1467 014a 40        		.byte	64
 1468 014b D0        		.byte	-48
 1469 014c 14        		.byte	20
 1470 014d 6A        		.byte	106
 1471 014e 4F        		.byte	79
 1472 014f B3        		.byte	-77
 1473 0150 50        		.byte	80
 1474 0151 B3        		.byte	-77
 1475 0152 51        		.byte	81
 1476 0153 00        		.byte	0
 1477 0154 52        		.byte	82
 1478 0155 3D        		.byte	61
 1479 0156 53        		.byte	83
 1480 0157 A7        		.byte	-89
 1481 0158 54        		.byte	84
 1482 0159 E4        		.byte	-28
 1483 015a 3D        		.byte	61
 1484 015b 40        		.byte	64
 1485 015c FF        		.byte	-1
 1486 015d FF        		.byte	-1
 1487               		.type	yuv422_ov7670, @object
 1488               		.size	yuv422_ov7670, 26
 1489               	yuv422_ov7670:
 1490 015e 12        		.byte	18
 1491 015f 00        		.byte	0
 1492 0160 8C        		.byte	-116
 1493 0161 00        		.byte	0
 1494 0162 04        		.byte	4
GAS LISTING /tmp/cccJIYS7.s 			page 57


 1495 0163 00        		.byte	0
 1496 0164 40        		.byte	64
 1497 0165 C0        		.byte	-64
 1498 0166 14        		.byte	20
 1499 0167 6A        		.byte	106
 1500 0168 4F        		.byte	79
 1501 0169 80        		.byte	-128
 1502 016a 50        		.byte	80
 1503 016b 80        		.byte	-128
 1504 016c 51        		.byte	81
 1505 016d 00        		.byte	0
 1506 016e 52        		.byte	82
 1507 016f 22        		.byte	34
 1508 0170 53        		.byte	83
 1509 0171 5E        		.byte	94
 1510 0172 54        		.byte	84
 1511 0173 80        		.byte	-128
 1512 0174 3D        		.byte	61
 1513 0175 40        		.byte	64
 1514 0176 FF        		.byte	-1
 1515 0177 FF        		.byte	-1
 1516               		.type	qqvga_ov7670, @object
 1517               		.size	qqvga_ov7670, 20
 1518               	qqvga_ov7670:
 1519 0178 3E        		.byte	62
 1520 0179 1A        		.byte	26
 1521 017a 72        		.byte	114
 1522 017b 22        		.byte	34
 1523 017c 73        		.byte	115
 1524 017d F2        		.byte	-14
 1525 017e 17        		.byte	23
 1526 017f 16        		.byte	22
 1527 0180 18        		.byte	24
 1528 0181 04        		.byte	4
 1529 0182 32        		.byte	50
 1530 0183 A4        		.byte	-92
 1531 0184 19        		.byte	25
 1532 0185 02        		.byte	2
 1533 0186 1A        		.byte	26
 1534 0187 7A        		.byte	122
 1535 0188 03        		.byte	3
 1536 0189 0A        		.byte	10
 1537 018a FF        		.byte	-1
 1538 018b FF        		.byte	-1
 1539               		.type	qvga_ov7670, @object
 1540               		.size	qvga_ov7670, 20
 1541               	qvga_ov7670:
 1542 018c 3E        		.byte	62
 1543 018d 19        		.byte	25
 1544 018e 72        		.byte	114
 1545 018f 11        		.byte	17
 1546 0190 73        		.byte	115
 1547 0191 F1        		.byte	-15
 1548 0192 17        		.byte	23
 1549 0193 16        		.byte	22
 1550 0194 18        		.byte	24
 1551 0195 04        		.byte	4
GAS LISTING /tmp/cccJIYS7.s 			page 58


 1552 0196 32        		.byte	50
 1553 0197 24        		.byte	36
 1554 0198 19        		.byte	25
 1555 0199 02        		.byte	2
 1556 019a 1A        		.byte	26
 1557 019b 7A        		.byte	122
 1558 019c 03        		.byte	3
 1559 019d 0A        		.byte	10
 1560 019e FF        		.byte	-1
 1561 019f FF        		.byte	-1
 1562               		.type	vga_ov7670, @object
 1563               		.size	vga_ov7670, 14
 1564               	vga_ov7670:
 1565 01a0 32        		.byte	50
 1566 01a1 F6        		.byte	-10
 1567 01a2 17        		.byte	23
 1568 01a3 13        		.byte	19
 1569 01a4 18        		.byte	24
 1570 01a5 01        		.byte	1
 1571 01a6 19        		.byte	25
 1572 01a7 02        		.byte	2
 1573 01a8 1A        		.byte	26
 1574 01a9 7A        		.byte	122
 1575 01aa 03        		.byte	3
 1576 01ab 0A        		.byte	10
 1577 01ac FF        		.byte	-1
 1578 01ad FF        		.byte	-1
 1579               		.stabs	"vga_ov7670:S(0,50)=ar(0,51)=r(0,51);0;0177777;;0;6;(0,49)",38,0,8,vga_ov7670
 1580               		.stabs	"qvga_ov7670:S(0,52)=ar(0,51);0;9;(0,49)",38,0,17,qvga_ov7670
 1581               		.stabs	"qqvga_ov7670:S(0,52)",38,0,29,qqvga_ov7670
 1582               		.stabs	"yuv422_ov7670:S(0,53)=ar(0,51);0;12;(0,49)",38,0,41,yuv422_ov7670
 1583               		.stabs	"rgb565_ov7670:S(0,53)",38,0,56,rgb565_ov7670
 1584               		.stabs	"bayerRGB_ov7670:S(0,54)=ar(0,51);0;4;(0,49)",38,0,71,bayerRGB_ov7670
 1585               		.stabs	"ov7670_default_regs:S(0,55)=ar(0,51);0;156;(0,49)",38,0,78,ov7670_default_regs
 1586               		.text
 1587               		.stabs	"",100,0,0,.Letext0
 1588               	.Letext0:
 1589               		.comm	__gnu_lto_v1,1,1
 1590               		.ident	"GCC: (GNU) 4.8.1"
 1591               	.global __do_copy_data
GAS LISTING /tmp/cccJIYS7.s 			page 59


DEFINED SYMBOLS
                            *ABS*:0000000000000000 ov7670.c
     /tmp/cccJIYS7.s:2      *ABS*:000000000000003e __SP_H__
     /tmp/cccJIYS7.s:3      *ABS*:000000000000003d __SP_L__
     /tmp/cccJIYS7.s:4      *ABS*:000000000000003f __SREG__
     /tmp/cccJIYS7.s:5      *ABS*:0000000000000000 __tmp_reg__
     /tmp/cccJIYS7.s:6      *ABS*:0000000000000001 __zero_reg__
     /tmp/cccJIYS7.s:561    .text.unlikely:0000000000000000 errorLed
     /tmp/cccJIYS7.s:607    .text:0000000000000000 twiStart
     /tmp/cccJIYS7.s:647    .text:000000000000001e twiWriteByte
     /tmp/cccJIYS7.s:692    .text:0000000000000046 wrReg
     /tmp/cccJIYS7.s:756    .text:0000000000000082 wrSensorRegs8_8
     /tmp/cccJIYS7.s:826    .text:00000000000000a6 rdReg
     /tmp/cccJIYS7.s:942    .text:0000000000000112 setColorSpace
     /tmp/cccJIYS7.s:1447   .rodata:000000000000013a bayerRGB_ov7670
     /tmp/cccJIYS7.s:1489   .rodata:000000000000015e yuv422_ov7670
     /tmp/cccJIYS7.s:1460   .rodata:0000000000000144 rgb565_ov7670
     /tmp/cccJIYS7.s:1019   .text:0000000000000150 setRes
     /tmp/cccJIYS7.s:1518   .rodata:0000000000000178 qqvga_ov7670
     /tmp/cccJIYS7.s:1564   .rodata:00000000000001a0 vga_ov7670
     /tmp/cccJIYS7.s:1541   .rodata:000000000000018c qvga_ov7670
     /tmp/cccJIYS7.s:1080   .text:000000000000018c camInit
     /tmp/cccJIYS7.s:1130   .rodata:0000000000000000 ov7670_default_regs
                            *COM*:0000000000000001 __gnu_lto_v1

UNDEFINED SYMBOLS
__do_copy_data
